(dp1
S'7252'
p2
(lp3
S'95-70-5'
p4
aS''
asS'5745'
p5
(lp6
S'50-04-4'
p7
aS''
asS'4020'
p8
(lp9
S'22232-71-9'
p10
aS''
asS'798'
p11
(lp12
S'120-72-9'
p13
aS''
asS'14927'
p14
(lp15
S'26266-57-9'
p16
aS''
asS'5988'
p17
(lp18
S'57-50-1'
p19
aS'57-50-1'
p20
aS'57-50-1'
p21
aS'57-50-1'
p22
aS''
asS'14926'
p23
(lp24
S'1338-39-2'
p25
aS''
asS'5983'
p26
(lp27
S'57-47-6'
p28
aS''
asS'5987'
p29
(lp30
S'5329-14-6'
p31
aS''
asS'10895'
p32
(lp33
S'540-42-1'
p34
aS''
asS'7517'
p35
(lp36
S'100-64-1'
p37
aS''
asS'7516'
p38
(lp39
S'100-63-0'
p40
aS'100-63-0'
p41
aS'100-63-0'
p42
aS''
asS'7515'
p43
(lp44
S'100-61-8'
p45
aS'100-61-8'
p46
aS''
asS'340'
p47
(lp48
S'488-17-5'
p49
aS''
asS'342'
p50
(lp51
S'108-39-4'
p52
aS'108-39-4'
p53
aS'108-39-4'
p54
aS''
asS'3998'
p55
(lp56
S'138-39-6'
p57
aS''
asS'14923'
p58
(lp59
S'1336-21-6'
p60
aS''
asS'3723'
p61
(lp62
S'440-58-4'
p63
aS''
asS'7519'
p64
(lp65
S'100-66-3'
p66
aS''
asS'964'
p67
(lp68
S'1113-60-6'
p69
aS''
asS'595'
p70
(lp71
S'56-89-3'
p72
aS'56-89-3'
p73
aS''
asS'965'
p74
(lp75
S'68412-07-7'
p76
aS''
asS'6354'
p77
(lp78
S'75-21-8'
p79
aS'75-21-8'
p80
aS'75-21-8'
p81
aS''
asS'8003'
p82
(lp83
S'109-66-0'
p84
aS'68476-43-7'
p85
aS'68476-55-1'
p86
aS'109-66-0'
p87
aS'109-66-0'
p88
aS''
asS'4934'
p89
(lp90
S'298-50-0'
p91
aS''
asS'4935'
p92
(lp93
S'499-67-2'
p94
aS''
asS'6794'
p95
(lp96
S'85-00-7'
p97
aS'2764-72-9'
p98
aS''
asS'6795'
p99
(lp100
S'2764-72-9'
p101
aS''
asS'4737'
p102
(lp103
S'76-74-4'
p104
aS''
asS'2318'
p105
(lp106
S'23602-78-0'
p107
aS''
asS'4735'
p108
(lp109
S'100-33-4'
p110
aS''
asS'2315'
p111
(lp112
S'73-48-3'
p113
aS''
asS'6720'
p114
(lp115
S'82-68-8'
p116
aS''
asS'5850'
p117
(lp118
S'144-44-5'
p119
aS''
asS'5852'
p120
(lp121
S'52-67-5'
p122
aS''
asS'299'
p123
(lp124
S'143-50-0'
p125
aS'143-50-0'
p126
aS''
asS'297'
p127
(lp128
S'74-82-8'
p129
aS'8006-14-2'
p130
aS'74-82-8'
p131
aS''
asS'294'
p132
(lp133
S'69-79-4'
p134
aS'69-79-4'
p135
aS''
asS'8302'
p136
(lp137
S'116-15-4'
p138
aS''
asS'4641'
p139
(lp140
S'129-20-4'
p141
aS''
asS'5749'
p142
(lp143
S'50-10-2'
p144
aS''
asS'3776'
p145
(lp146
S'67-63-0'
p147
aS'67-63-0'
p148
aS'67-63-0'
p149
aS''
asS'3775'
p150
(lp151
S'7492-32-2'
p152
aS''
asS'6582'
p153
(lp154
S'79-16-3'
p155
aS''
asS'3779'
p156
(lp157
S'7683-59-2'
p158
aS''
asS'4021'
p159
(lp160
S'89-25-8'
p161
aS''
asS'274'
p162
(lp163
S'60-92-4'
p164
aS''
asS'4650'
p165
(lp166
S'106-51-4'
p167
aS'106-51-4'
p168
aS'106-51-4'
p169
aS''
asS'277'
p170
(lp171
S'463-77-4'
p172
aS''
asS'6587'
p173
(lp174
S'79-24-3'
p175
aS'79-24-3'
p176
aS'79-24-3'
p177
aS''
asS'6586'
p178
(lp179
S'79-22-1'
p180
aS''
asS'7993'
p181
(lp182
S'109-55-7'
p183
aS''
asS'12018'
p184
(lp185
S'616-23-9'
p186
aS''
asS'260'
p187
(lp188
S'10035-10-6'
p189
aS'10035-10-6'
p190
aS'10035-10-6'
p191
aS''
asS'6584'
p192
(lp193
S'79-20-9'
p194
aS'79-20-9'
p195
aS'79-20-9'
p196
aS''
asS'3446'
p197
(lp198
S'60142-96-3'
p199
aS''
asS'6196'
p200
(lp201
S'66-79-5'
p202
aS''
asS'7888'
p203
(lp204
S'107-75-5'
p205
aS''
asS'2268'
p206
(lp207
S'86-50-0'
p208
aS'86-50-0'
p209
aS''
asS'2269'
p210
(lp211
S'83905-01-5'
p212
aS''
asS'8207'
p213
(lp214
S'112-70-9'
p215
aS''
asS'7881'
p216
(lp217
S'107-66-4'
p218
aS'107-66-4'
p219
aS'107-66-4'
p220
aS''
asS'11761'
p221
(lp222
S'602-01-7'
p223
aS''
asS'2266'
p224
(lp225
S'123-99-9'
p226
aS'123-99-9'
p227
aS''
asS'2267'
p228
(lp229
S'58581-89-8'
p230
aS''
asS'7886'
p231
(lp232
S'107-73-3'
p233
aS''
asS'2442'
p234
(lp235
S'3572-43-8'
p236
aS''
asS'2441'
p237
(lp238
S'1812-30-2'
p239
aS''
asS'2446'
p240
(lp241
S'4093-35-0'
p242
aS''
asS'2444'
p243
(lp244
S'118-23-0'
p245
aS''
asS'11855'
p246
(lp247
S'608-93-5'
p248
aS''
asS'9257'
p249
(lp250
S'288-88-0'
p251
aS''
asS'10707'
p252
(lp253
S'528-29-0'
p254
aS'528-29-0'
p255
aS''
asS'9253'
p256
(lp257
S'287-92-3'
p258
aS'68476-56-2'
p259
aS'287-92-3'
p260
aS'287-92-3'
p261
aS''
asS'3690'
p262
(lp263
S'3778-73-2'
p264
aS''
asS'178'
p265
(lp266
S'60-35-5'
p267
aS''
asS'6923'
p268
(lp269
S'88-18-6'
p270
aS''
asS'7865'
p271
(lp272
S'107-31-3'
p273
aS'107-31-3'
p274
aS'107-31-3'
p275
aS''
asS'7864'
p276
(lp277
S'107-30-2'
p278
aS'107-30-2'
p279
aS'107-30-2'
p280
aS''
asS'7863'
p281
(lp282
S'107-29-9'
p283
aS''
asS'7861'
p284
(lp285
S'107-25-5'
p286
aS''
asS'7860'
p287
(lp288
S'107-22-2'
p289
aS'107-22-2'
p290
aS''
asS'101'
p291
(lp292
S'100-83-4'
p293
aS''
asS'107'
p294
(lp295
S'501-52-0'
p296
aS''
asS'7869'
p297
(lp298
S'107-40-4'
p299
aS''
asS'7868'
p300
(lp301
S'107-39-1'
p302
aS'25167-70-8'
p303
aS''
asS'4812'
p304
(lp305
S'84-80-0'
p306
aS''
asS'6378'
p307
(lp308
S'75-56-9'
p309
aS'75-56-9'
p310
aS'75-56-9'
p311
aS''
asS'6379'
p312
(lp313
S'75-57-0'
p314
aS''
asS'11123'
p315
(lp316
S'554-00-7'
p317
aS''
asS'6370'
p318
(lp319
S'75-43-4'
p320
aS'75-43-4'
p321
aS''
asS'6371'
p322
(lp323
S'75-44-5'
p324
aS'75-44-5'
p325
aS'75-44-5'
p326
aS''
asS'6372'
p327
(lp328
S'75-45-6'
p329
aS'75-45-6'
p330
aS'75-45-6'
p331
aS''
asS'6373'
p332
(lp333
S'75-46-7'
p334
aS''
asS'6374'
p335
(lp336
S'75-47-8'
p337
aS'75-47-8'
p338
aS''
asS'6375'
p339
(lp340
S'75-52-5'
p341
aS'75-52-5'
p342
aS'75-52-5'
p343
aS''
asS'11419'
p344
(lp345
S'583-60-8'
p346
aS'583-60-8'
p347
aS''
asS'6377'
p348
(lp349
S'75-55-8'
p350
aS'75-55-8'
p351
aS'75-55-8'
p352
aS''
asS'10140'
p353
(lp354
S'475-31-0'
p355
aS''
asS'11260'
p356
(lp357
S'565-59-3'
p358
aS''
asS'10413'
p359
(lp360
S'591-81-1'
p361
aS''
asS'10387'
p362
(lp363
S'501-53-1'
p364
aS''
asS'4644'
p365
(lp366
S'2465-59-0'
p367
aS''
asS'9320'
p368
(lp369
S'301-13-3'
p370
aS''
asS'9321'
p371
(lp372
S'302-01-2'
p373
aS'302-01-2'
p374
aS'302-01-2'
p375
aS''
asS'9635'
p376
(lp377
S'354-58-5'
p378
aS''
asS'9636'
p379
(lp380
S'354-64-3'
p381
aS''
asS'3519'
p382
(lp383
S'29110-47-2'
p384
aS''
asS'3518'
p385
(lp386
S'645-43-2'
p387
aS''
asS'7269'
p388
(lp389
S'95-93-2'
p390
aS''
asS'7268'
p391
(lp392
S'95-92-1'
p393
aS''
asS'8946'
p394
(lp395
S'144-19-4'
p396
aS''
asS'7265'
p397
(lp398
S'95-85-2'
p399
aS''
asS'7264'
p400
(lp401
S'95-84-1'
p402
aS''
asS'7267'
p403
(lp404
S'95-87-4'
p405
aS''
asS'3510'
p406
(lp407
S'109889-09-0'
p408
aS''
asS'3517'
p409
(lp410
S'5051-62-7'
p411
aS''
asS'3516'
p412
(lp413
S'93-14-1'
p414
aS'93-14-1'
p415
aS''
asS'14017'
p416
(lp417
S'1066-51-9'
p418
aS''
asS'12230'
p419
(lp420
S'624-89-5'
p421
aS''
asS'12232'
p422
(lp423
S'624-92-0'
p424
aS''
asS'2681'
p425
(lp426
S'57-09-0'
p427
aS''
asS'2682'
p428
(lp429
S'36653-82-4'
p430
aS''
asS'6809'
p431
(lp432
S'85-41-6'
p433
aS''
asS'6804'
p434
(lp435
S'85-32-5'
p436
aS''
asS'6802'
p437
(lp438
S'118-00-3'
p439
aS''
asS'10563'
p440
(lp441
S'513-77-9'
p442
aS''
asS'2812'
p443
(lp444
S'23593-75-1'
p445
aS''
asS'10560'
p446
(lp447
S'513-53-1'
p448
aS''
asS'9740'
p449
(lp450
S'372-09-8'
p451
aS''
asS'10565'
p452
(lp453
S'513-79-1'
p454
aS''
asS'10569'
p455
(lp456
S'8050-09-7'
p457
aS''
asS'96'
p458
(lp459
S'541-50-4'
p460
aS''
asS'1990'
p461
(lp462
S'546-88-3'
p463
aS''
asS'1993'
p464
(lp465
S'55-92-5'
p466
aS''
asS'1626'
p467
(lp468
S'102-83-0'
p469
aS''
asS'5184'
p470
(lp471
S'51-34-3'
p472
aS''
asS'3209'
p473
(lp474
S'10417-94-4'
p475
aS''
asS'8839'
p476
(lp477
S'141-22-0'
p478
aS'141-22-0'
p479
aS''
asS'8838'
p480
(lp481
S'141-21-9'
p482
aS''
asS'8837'
p483
(lp484
S'141-18-4'
p485
aS''
asS'8836'
p486
(lp487
S'141-17-3'
p488
aS''
asS'8831'
p489
(lp490
S'141-04-8'
p491
aS''
asS'14242'
p492
(lp493
S'1119-40-0'
p494
aS''
asS'14716'
p495
(lp496
S'1241-94-7'
p497
aS''
asS'7677'
p498
(lp499
S'103-76-4'
p500
aS''
asS'9046'
p501
(lp502
S'152-43-2'
p503
aS''
asS'7675'
p504
(lp505
S'103-74-2'
p506
aS''
asS'7672'
p507
(lp508
S'103-71-9'
p509
aS''
asS'7670'
p510
(lp511
S'103-69-5'
p512
aS''
asS'1198'
p513
(lp514
S'320-77-4'
p515
aS''
asS'3348'
p516
(lp517
S'83799-24-0'
p518
aS''
asS'7078'
p519
(lp520
S'92-15-9'
p521
aS''
asS'3342'
p522
(lp523
S'34597-40-5'
p524
aS''
asS'3343'
p525
(lp526
S'13392-18-2'
p527
aS''
asS'5452'
p528
(lp529
S'50-52-2'
p530
aS''
asS'3341'
p531
(lp532
S'67227-57-0'
p533
aS''
asS'5454'
p534
(lp535
S'5591-45-7'
p536
aS''
asS'5455'
p537
(lp538
S'137-26-8'
p539
aS'137-26-8'
p540
aS'137-26-8'
p541
aS''
asS'3344'
p542
(lp543
S'5053-06-5'
p544
aS''
asS'3345'
p545
(lp546
S'437-38-7'
p547
aS''
asS'1752'
p548
(lp549
S'25154-52-3'
p550
aS''
asS'4259'
p551
(lp552
S'354812-41-2'
p553
aS''
asS'1176'
p554
(lp555
S'57-13-6'
p556
aS'57-13-6'
p557
aS''
asS'1175'
p558
(lp559
S'69-93-2'
p560
aS'69-93-2'
p561
aS''
asS'1174'
p562
(lp563
S'66-22-8'
p564
aS''
asS'1172'
p565
(lp566
S'58-97-9'
p567
aS''
asS'8165'
p568
(lp569
S'112-15-2'
p570
aS''
asS'12496'
p571
(lp572
S'637-12-7'
p573
aS''
asS'8168'
p574
(lp575
S'112-18-5'
p576
aS'68391-04-8'
p577
aS''
asS'13945'
p578
(lp579
S'1032-65-1'
p580
aS''
asS'6979'
p581
(lp582
S'89-63-4'
p583
aS''
asS'5533'
p584
(lp585
S'19794-93-5'
p586
aS''
asS'5530'
p587
(lp588
S'155-09-9'
p589
aS''
asS'5538'
p590
(lp591
S'302-79-4'
p592
aS'4759-48-2'
p593
aS''
asS'1005'
p594
(lp595
S'138-08-9'
p596
aS''
asS'11178'
p597
(lp598
S'557-05-1'
p599
aS'557-05-1'
p600
aS'557-05-1'
p601
aS''
asS'1004'
p602
(lp603
S'7664-38-2'
p604
aS'7664-38-2'
p605
aS'7664-38-2'
p606
aS''
asS'11169'
p607
(lp608
S'556-67-2'
p609
aS''
asS'11074'
p610
(lp611
S'550-44-7'
p612
aS''
asS'11164'
p613
(lp614
S'556-52-5'
p615
aS'556-52-5'
p616
aS''
asS'3152'
p617
(lp618
S'120014-06-4'
p619
aS''
asS'1573'
p620
(lp621
S'362-07-2'
p622
aS''
asS'5556'
p623
(lp624
S'28911-01-5'
p625
aS''
asS'6475'
p626
(lp627
S'77-38-3'
p628
aS''
asS'681'
p629
(lp630
S'51-61-6'
p631
aS''
asS'7185'
p632
(lp633
S'94-28-0'
p634
aS''
asS'7187'
p635
(lp636
S'94-36-0'
p637
aS'94-36-0'
p638
aS'94-36-0'
p639
aS''
asS'4189'
p640
(lp641
S'22916-47-8'
p642
aS''
asS'13831'
p643
(lp644
S'998-40-3'
p645
aS''
asS'8385'
p646
(lp647
S'119-27-7'
p648
aS''
asS'13838'
p649
(lp650
S'999-97-3'
p651
aS''
asS'8050'
p652
(lp653
S'110-42-9'
p654
aS''
asS'8549'
p655
(lp656
S'130-95-0'
p657
aS'56-54-2'
p658
aS''
asS'8019'
p659
(lp660
S'109-86-4'
p661
aS'109-86-4'
p662
aS'109-86-4'
p663
aS'109-86-4'
p664
aS''
asS'8201'
p665
(lp666
S'112-61-8'
p667
aS''
asS'8016'
p668
(lp669
S'109-83-1'
p670
aS''
asS'8012'
p671
(lp672
S'109-79-5'
p673
aS'109-79-5'
p674
aS'109-79-5'
p675
aS''
asS'8010'
p676
(lp677
S'109-77-3'
p678
aS'109-77-3'
p679
aS'109-77-3'
p680
aS''
asS'7456'
p681
(lp682
S'99-76-3'
p683
aS''
asS'6570'
p684
(lp685
S'78-94-4'
p686
aS''
asS'6571'
p687
(lp688
S'78-95-5'
p689
aS'78-95-5'
p690
aS''
asS'7452'
p691
(lp692
S'99-65-0'
p693
aS'99-65-0'
p694
aS''
asS'7453'
p695
(lp696
S'99-71-8'
p697
aS''
asS'6574'
p698
(lp699
S'79-00-5'
p700
aS'79-00-5'
p701
aS'79-00-5'
p702
aS''
asS'6575'
p703
(lp704
S'79-01-6'
p705
aS'79-01-6'
p706
aS'79-01-6'
p707
aS''
asS'5625'
p708
(lp709
S'136817-59-9'
p710
aS''
asS'6579'
p711
(lp712
S'79-06-1'
p713
aS'79-06-1'
p714
aS'79-06-1'
p715
aS''
asS'7458'
p716
(lp717
S'99-79-6'
p718
aS''
asS'7459'
p719
(lp720
S'99-82-1'
p721
aS''
asS'7695'
p722
(lp723
S'104-21-2'
p724
aS''
asS'8490'
p725
(lp726
S'121-82-4'
p727
aS'121-82-4'
p728
aS'121-82-4'
p729
aS''
asS'403'
p730
(lp731
S'123-30-8'
p732
aS''
asS'402'
p733
(lp734
S'7704-34-9'
p735
aS'7783-06-4'
p736
aS'9035-99-8'
p737
aS'7783-06-4'
p738
aS'7783-06-4'
p739
aS''
asS'7699'
p740
(lp741
S'104-31-4'
p742
aS''
asS'10967'
p743
(lp744
S'542-88-1'
p745
aS''
asS'8058'
p746
(lp747
S'110-54-3'
p748
aS'110-54-3'
p749
aS'110-54-3'
p750
aS'110-54-3'
p751
aS''
asS'8815'
p752
(lp753
S'140-67-0'
p754
aS''
asS'4184'
p755
(lp756
S'24219-97-4'
p757
aS''
asS'5995'
p758
(lp759
S'57-85-2'
p760
aS''
asS'4030'
p761
(lp762
S'31431-39-7'
p763
aS''
asS'4032'
p764
(lp765
S'60-40-2'
p766
aS''
asS'5991'
p767
(lp768
S'57-63-6'
p769
aS''
asS'4034'
p770
(lp771
S'569-65-3'
p772
aS''
asS'5993'
p773
(lp774
S'57-74-9'
p775
aS'57-74-9'
p776
aS''
asS'10889'
p777
(lp778
S'540-10-3'
p779
aS''
asS'4734'
p780
(lp781
S'5534-95-2'
p782
aS''
asS'8814'
p783
(lp784
S'140-66-9'
p785
aS''
asS'5106'
p786
(lp787
S'80214-83-1'
p788
aS''
asS'379'
p789
(lp790
S'124-07-2'
p791
aS'124-07-2'
p792
aS''
asS'378'
p793
(lp794
S'330-13-2'
p795
aS''
asS'7521'
p796
(lp797
S'100-69-6'
p798
aS''
asS'4842'
p799
(lp800
S'54-91-1'
p801
aS''
asS'7525'
p802
(lp803
S'100-74-3'
p804
aS'100-74-3'
p805
aS'100-74-3'
p806
aS''
asS'8294'
p807
(lp808
S'115-95-7'
p809
aS''
asS'6530'
p810
(lp811
S'220352-35-2'
p812
aS'78-33-1'
p813
aS''
asS'6531'
p814
(lp815
S'78-34-2'
p816
aS'78-34-2'
p817
aS''
asS'12712'
p818
(lp819
S'688-74-4'
p820
aS''
asS'12713'
p821
(lp822
S'688-84-6'
p823
aS''
asS'6140'
p824
(lp825
S'63-91-2'
p826
aS''
asS'6144'
p827
(lp828
S'64-02-8'
p829
aS''
asS'398'
p830
(lp831
S'79-46-9'
p832
aS'79-46-9'
p833
aS'79-46-9'
p834
aS''
asS'2334'
p835
(lp836
S'517-60-2'
p837
aS''
asS'6781'
p838
(lp839
S'84-66-2'
p840
aS'84-66-2'
p841
aS'84-66-2'
p842
aS''
asS'6780'
p843
(lp844
S'84-65-1'
p845
aS''
asS'10972'
p846
(lp847
S'543-24-8'
p848
aS''
asS'6782'
p849
(lp850
S'84-69-5'
p851
aS''
asS'6787'
p852
(lp853
S'68515-45-7'
p854
aS''
asS'6786'
p855
(lp856
S'84-75-3'
p857
aS''
asS'4725'
p858
(lp859
S'39809-25-1'
p860
aS''
asS'4724'
p861
(lp862
S'36507-48-9'
p863
aS''
asS'4727'
p864
(lp865
S'52-67-5'
p866
aS''
asS'4723'
p867
(lp868
S'2152-34-3'
p869
aS''
asS'11289'
p870
(lp871
S'569-57-3'
p872
aS''
asS'6501'
p873
(lp874
S'77-83-8'
p875
aS''
asS'3748'
p876
(lp877
S'54-92-2'
p878
aS''
asS'3749'
p879
(lp880
S'138402-11-6'
p881
aS''
asS'3746'
p882
(lp883
S'60205-81-4'
p884
aS''
asS'5853'
p885
(lp886
S'52-68-6'
p887
aS''
asS'7713'
p888
(lp889
S'104-66-5'
p890
aS''
asS'7175'
p891
(lp892
S'94-13-3'
p893
aS''
asS'244'
p894
(lp895
S'100-51-6'
p896
aS'100-51-6'
p897
aS''
asS'4622'
p898
(lp899
S'20559-55-1'
p900
aS''
asS'240'
p901
(lp902
S'100-52-7'
p903
aS''
asS'243'
p904
(lp905
S'65-85-0'
p906
aS'65-85-0'
p907
aS''
asS'13539'
p908
(lp909
S'923-26-2'
p910
aS''
asS'7714'
p911
(lp912
S'104-67-6'
p913
aS''
asS'2271'
p914
(lp915
S'37091-66-0'
p916
aS''
asS'2273'
p917
(lp918
S'27589-33-9'
p919
aS''
asS'11750'
p920
(lp921
S'600-25-9'
p922
aS'600-25-9'
p923
aS''
asS'7492'
p924
(lp925
S'100-25-4'
p926
aS'100-25-4'
p927
aS''
asS'11597'
p928
(lp929
S'592-41-6'
p930
aS'592-41-6'
p931
aS''
asS'10465'
p932
(lp933
S'506-12-7'
p934
aS'67701-03-5'
p935
aS'68424-37-3'
p936
aS''
asS'11590'
p937
(lp938
S'592-01-8'
p939
aS''
asS'11598'
p940
(lp941
S'592-42-7'
p942
aS''
asS'9248'
p943
(lp944
S'286-99-7'
p945
aS''
asS'3454'
p946
(lp947
S'82410-32-0'
p948
aS''
asS'5546'
p949
(lp950
S'396-01-0'
p951
aS''
asS'5206'
p952
(lp953
S'28523-86-6'
p954
aS''
asS'2451'
p955
(lp956
S'57801-81-7'
p957
aS''
asS'9246'
p958
(lp959
S'286-20-4'
p960
aS''
asS'7852'
p961
(lp962
S'68187-44-0'
p963
aS''
asS'7853'
p964
(lp965
S'107-11-9'
p966
aS''
asS'7850'
p967
(lp968
S'107-05-1'
p969
aS'107-05-1'
p970
aS'107-05-1'
p971
aS''
asS'7857'
p972
(lp973
S'107-16-4'
p974
aS'107-16-4'
p975
aS'107-16-4'
p976
aS''
asS'179'
p977
(lp978
S'513-86-0'
p979
aS'513-86-0'
p980
aS''
asS'7855'
p981
(lp982
S'107-13-1'
p983
aS'107-13-1'
p984
aS'107-13-1'
p985
aS''
asS'177'
p986
(lp987
S'75-07-0'
p988
aS'75-07-0'
p989
aS'75-07-0'
p990
aS''
asS'176'
p991
(lp992
S'64-19-7'
p993
aS'64-19-7'
p994
aS'64-19-7'
p995
aS'64-19-7'
p996
aS''
asS'7858'
p997
(lp998
S'107-18-6'
p999
aS'107-18-6'
p1000
aS'107-18-6'
p1001
aS''
asS'174'
p1002
(lp1003
S'107-21-1'
p1004
aS'107-21-1'
p1005
aS'107-21-1'
p1006
aS''
asS'173'
p1007
(lp1008
S'4707-58-8'
p1009
aS''
asS'13282'
p1010
(lp1011
S'838-85-7'
p1012
aS''
asS'3698'
p1013
(lp1014
S'60719-84-8'
p1015
aS''
asS'4539'
p1016
(lp1017
S'70458-96-7'
p1018
aS''
asS'4828'
p1019
(lp1020
S'13523-86-9'
p1021
aS''
asS'4829'
p1022
(lp1023
S'111025-46-8'
p1024
aS''
asS'4534'
p1025
(lp1026
S'500-38-9'
p1027
aS''
asS'7980'
p1028
(lp1029
S'109-17-1'
p1030
aS''
asS'6369'
p1031
(lp1032
S'75-38-7'
p1033
aS'75-38-7'
p1034
aS'75-38-7'
p1035
aS''
asS'6368'
p1036
(lp1037
S'75-37-6'
p1038
aS''
asS'7985'
p1039
(lp1040
S'109-31-9'
p1041
aS''
asS'7986'
p1042
(lp1043
S'109-43-3'
p1044
aS''
asS'6363'
p1045
(lp1046
S'75-31-0'
p1047
aS'75-31-0'
p1048
aS'75-31-0'
p1049
aS''
asS'9560'
p1050
(lp1051
S'7786-34-7'
p1052
aS'7786-34-7'
p1053
aS''
asS'6360'
p1054
(lp1055
S'75-28-5'
p1056
aS'75-28-5'
p1057
aS'75-28-5'
p1058
aS''
asS'6366'
p1059
(lp1060
S'75-35-4'
p1061
aS'75-35-4'
p1062
aS'75-35-4'
p1063
aS''
asS'6365'
p1064
(lp1065
S'75-34-3'
p1066
aS'75-34-3'
p1067
aS'75-34-3'
p1068
aS''
asS'6364'
p1069
(lp1070
S'75-33-2'
p1071
aS''
asS'1879'
p1072
(lp1073
S'79647-29-3'
p1074
aS''
asS'10401'
p1075
(lp1076
S'24980-41-4'
p1077
aS'502-44-3'
p1078
aS''
asS'11979'
p1079
(lp1080
S'614-97-1'
p1081
aS''
asS'9330'
p1082
(lp1083
S'302-40-9'
p1084
aS''
asS'10407'
p1085
(lp1086
S'18794-84-8'
p1087
aS''
asS'11933'
p1088
(lp1089
S'612-83-9'
p1090
aS''
asS'11976'
p1091
(lp1092
S'615-05-4'
p1093
aS'615-05-4'
p1094
aS''
asS'3520'
p1095
(lp1096
S'113-00-8'
p1097
aS''
asS'9623'
p1098
(lp1099
S'353-50-4'
p1100
aS'353-50-4'
p1101
aS''
asS'3229'
p1102
(lp1103
S'74011-58-8'
p1104
aS''
asS'7219'
p1105
(lp1106
S'95-13-6'
p1107
aS'95-13-6'
p1108
aS'95-13-6'
p1109
aS'95-13-6'
p1110
aS''
asS'14899'
p1111
(lp1112
S'1330-61-6'
p1113
aS''
asS'7211'
p1114
(lp1115
S'94-96-2'
p1116
aS''
asS'6215'
p1117
(lp1118
S'67-73-2'
p1119
aS''
asS'6214'
p1120
(lp1121
S'67-72-1'
p1122
aS'67-72-1'
p1123
aS'67-72-1'
p1124
aS''
asS'6212'
p1125
(lp1126
S'67-66-3'
p1127
aS'67-66-3'
p1128
aS'67-66-3'
p1129
aS''
asS'6211'
p1130
(lp1131
S'67-52-7'
p1132
aS''
asS'12228'
p1133
(lp1134
S'624-83-9'
p1135
aS'624-83-9'
p1136
aS''
asS'6811'
p1137
(lp1138
S'85-44-9'
p1139
aS'85-44-9'
p1140
aS'85-44-9'
p1141
aS''
asS'6810'
p1142
(lp1143
S'85-43-8'
p1144
aS''
asS'6382'
p1145
(lp1146
S'75-61-6'
p1147
aS'75-61-6'
p1148
aS''
asS'6815'
p1149
(lp1150
S'85-60-9'
p1151
aS''
asS'6816'
p1152
(lp1153
S'85-61-0'
p1154
aS''
asS'9756'
p1155
(lp1156
S'373-02-4'
p1157
aS''
asS'14095'
p1158
(lp1159
S'1074-55-1'
p1160
aS''
asS'14092'
p1161
(lp1162
S'1074-43-7'
p1163
aS''
asS'9750'
p1164
(lp1165
S'372-75-8'
p1166
aS''
asS'5195'
p1167
(lp1168
S'14611-51-9'
p1169
aS''
asS'3676'
p1170
(lp1171
S'137-58-6'
p1172
aS''
asS'1614'
p1173
(lp1174
S'4764-17-4'
p1175
aS''
asS'1615'
p1176
(lp1177
S'42542-10-9'
p1178
aS''
asS'5192'
p1179
(lp1180
S'111-20-6'
p1181
aS''
asS'8840'
p1182
(lp1183
S'141-23-1'
p1184
aS''
asS'8841'
p1185
(lp1186
S'141-24-2'
p1187
aS''
asS'8842'
p1188
(lp1189
S'106-22-9'
p1190
aS''
asS'8843'
p1191
(lp1192
S'141-27-5'
p1193
aS'5392-40-5'
p1194
aS''
asS'8846'
p1195
(lp1196
S'141-32-2'
p1197
aS'141-32-2'
p1198
aS'141-32-2'
p1199
aS''
asS'8847'
p1200
(lp1201
S'141-38-8'
p1202
aS''
asS'12955'
p1203
(lp1204
S'753-73-1'
p1205
aS''
asS'6005'
p1206
(lp1207
S'41372-20-7'
p1208
aS''
asS'2879'
p1209
(lp1210
S'106-44-5'
p1211
aS'106-44-5'
p1212
aS'106-44-5'
p1213
aS'106-44-5'
p1214
aS''
asS'12958'
p1215
(lp1216
S'756-79-6'
p1217
aS''
asS'5426'
p1218
(lp1219
S'50-35-1'
p1220
aS''
asS'3354'
p1221
(lp1222
S'15301-69-6'
p1223
aS''
asS'3357'
p1224
(lp1225
S'79660-72-3'
p1226
aS''
asS'3356'
p1227
(lp1228
S'54143-55-4'
p1229
aS''
asS'7660'
p1230
(lp1231
S'103-54-8'
p1232
aS''
asS'7666'
p1233
(lp1234
S'103-63-9'
p1235
aS''
asS'8919'
p1236
(lp1237
S'143-15-7'
p1238
aS''
asS'8857'
p1239
(lp1240
S'141-78-6'
p1241
aS'141-78-6'
p1242
aS'141-78-6'
p1243
aS''
asS'7064'
p1244
(lp1245
S'91-76-9'
p1246
aS''
asS'5447'
p1247
(lp1248
S'111-48-8'
p1249
aS''
asS'5446'
p1250
(lp1251
S'7519-74-6'
p1252
aS''
asS'7061'
p1253
(lp1254
S'91-66-7'
p1255
aS''
asS'7060'
p1256
(lp1257
S'91-63-4'
p1258
aS''
asS'11335'
p1259
(lp1260
S'576-26-1'
p1261
aS''
asS'6961'
p1262
(lp1263
S'89-05-4'
p1264
aS'89-05-4'
p1265
aS''
asS'6960'
p1266
(lp1267
S'89-04-3'
p1268
aS''
asS'1140'
p1269
(lp1270
S'108-88-3'
p1271
aS'108-88-3'
p1272
aS'108-88-3'
p1273
aS'108-88-3'
p1274
aS''
asS'6962'
p1275
(lp1276
S'89-08-7'
p1277
aS''
asS'1146'
p1278
(lp1279
S'75-50-3'
p1280
aS'75-50-3'
p1281
aS'75-50-3'
p1282
aS''
asS'1144'
p1283
(lp1284
S'4484-88-2'
p1285
aS''
asS'6966'
p1286
(lp1287
S'89-32-7'
p1288
aS''
asS'8154'
p1289
(lp1290
S'112-02-7'
p1291
aS''
asS'8152'
p1292
(lp1293
S'112-00-5'
p1294
aS''
asS'768'
p1295
(lp1296
S'74-90-8'
p1297
aS'74-90-8'
p1298
aS'74-90-8'
p1299
aS''
asS'8150'
p1300
(lp1301
S'111-96-6'
p1302
aS''
asS'8151'
p1303
(lp1304
S'111-97-7'
p1305
aS''
asS'11230'
p1306
(lp1307
S'562-74-3'
p1308
aS''
asS'2966'
p1309
(lp1310
S'1131-64-2'
p1311
aS''
asS'6358'
p1312
(lp1313
S'75-26-3'
p1314
aS''
asS'5509'
p1315
(lp1316
S'26171-23-3'
p1317
aS''
asS'5504'
p1318
(lp1319
S'59-98-3'
p1320
aS''
asS'5505'
p1321
(lp1322
S'64-77-7'
p1323
aS''
asS'5502'
p1324
(lp1325
S'22345-47-7'
p1326
aS''
asS'5503'
p1327
(lp1328
S'1156-19-0'
p1329
aS''
asS'14474'
p1330
(lp1331
S'1187-93-5'
p1332
aS''
asS'8710'
p1333
(lp1334
S'137-03-1'
p1335
aS''
asS'8711'
p1336
(lp1337
S'137-05-3'
p1338
aS''
asS'7198'
p1339
(lp1340
S'3399-22-2'
p1341
aS'94-60-0'
p1342
aS''
asS'546'
p1343
(lp1344
S'4408-78-0'
p1345
aS'4408-78-0'
p1346
aS''
asS'547'
p1347
(lp1348
S'102-32-9'
p1349
aS''
asS'8472'
p1350
(lp1351
S'121-45-9'
p1352
aS'121-45-9'
p1353
aS'121-45-9'
p1354
aS''
asS'7197'
p1355
(lp1356
S'94-58-6'
p1357
aS''
asS'13842'
p1358
(lp1359
S'1000-82-4'
p1360
aS''
asS'13849'
p1361
(lp1362
S'1002-84-2'
p1363
aS''
asS'13848'
p1364
(lp1365
S'1002-69-3'
p1366
aS''
asS'7564'
p1367
(lp1368
S'101-54-2'
p1369
aS''
asS'2646'
p1370
(lp1371
S'92665-29-7'
p1372
aS''
asS'8028'
p1373
(lp1374
S'109-99-9'
p1375
aS'109-99-9'
p1376
aS'109-99-9'
p1377
aS''
asS'8029'
p1378
(lp1379
S'110-00-9'
p1380
aS''
asS'764'
p1381
(lp1382
S'73-40-5'
p1383
aS''
asS'8530'
p1384
(lp1385
S'130-15-4'
p1386
aS''
asS'15'
p1387
(lp1388
S'521-18-6'
p1389
aS''
asS'8020'
p1390
(lp1391
S'109-87-5'
p1392
aS'109-87-5'
p1393
aS'109-87-5'
p1394
aS''
asS'8021'
p1395
(lp1396
S'109-89-7'
p1397
aS'109-89-7'
p1398
aS'109-89-7'
p1399
aS''
asS'8025'
p1400
(lp1401
S'109-94-4'
p1402
aS'109-94-4'
p1403
aS''
asS'7440'
p1404
(lp1405
S'99-51-4'
p1406
aS''
asS'11026'
p1407
(lp1408
S'546-68-9'
p1409
aS''
asS'6569'
p1410
(lp1411
S'78-93-3'
p1412
aS'78-93-3'
p1413
aS'78-93-3'
p1414
aS''
asS'3048'
p1415
(lp1416
S'60-57-1'
p1417
aS'72-20-8'
p1418
aS'60-57-1'
p1419
aS'72-20-8'
p1420
aS''
asS'6565'
p1421
(lp1422
S'78-88-6'
p1423
aS''
asS'6564'
p1424
(lp1425
S'78-87-5'
p1426
aS'78-87-5'
p1427
aS'78-87-5'
p1428
aS'78-87-5'
p1429
aS''
asS'6567'
p1430
(lp1431
S'78-90-0'
p1432
aS''
asS'6566'
p1433
(lp1434
S'78-89-7'
p1435
aS''
asS'6561'
p1436
(lp1437
S'78-84-2'
p1438
aS''
asS'6560'
p1439
(lp1440
S'78-83-1'
p1441
aS'78-83-1'
p1442
aS'78-83-1'
p1443
aS''
asS'8105'
p1444
(lp1445
S'111-29-5'
p1446
aS''
asS'19'
p1447
(lp1448
S'303-38-8'
p1449
aS''
asS'7223'
p1450
(lp1451
S'95-19-2'
p1452
aS''
asS'7681'
p1453
(lp1454
S'103-83-3'
p1455
aS''
asS'4497'
p1456
(lp1457
S'66085-59-4'
p1458
aS''
asS'5472'
p1459
(lp1460
S'55142-85-3'
p1461
aS''
asS'2265'
p1462
(lp1463
S'446-86-6'
p1464
aS''
asS'6408'
p1465
(lp1466
S'75-88-7'
p1467
aS''
asS'3325'
p1468
(lp1469
S'76824-35-6'
p1470
aS''
asS'3827'
p1471
(lp1472
S'34580-14-8'
p1473
aS''
asS'3826'
p1474
(lp1475
S'66635-83-4'
p1476
aS''
asS'3825'
p1477
(lp1478
S'22071-15-4'
p1479
aS''
asS'3824'
p1480
(lp1481
S'853-34-9'
p1482
aS''
asS'3823'
p1483
(lp1484
S'65277-42-1'
p1485
aS''
asS'3821'
p1486
(lp1487
S'6740-88-1'
p1488
aS''
asS'5002'
p1489
(lp1490
S'111974-69-7'
p1491
aS''
asS'5471'
p1492
(lp1493
S'34787-01-4'
p1494
aS''
asS'11568'
p1495
(lp1496
S'591-27-5'
p1497
aS''
asS'8445'
p1498
(lp1499
S'120-71-8'
p1500
aS''
asS'8447'
p1501
(lp1502
S'120-78-5'
p1503
aS''
asS'8441'
p1504
(lp1505
S'120-61-6'
p1506
aS''
asS'9528'
p1507
(lp1508
S'333-36-8'
p1509
aS''
asS'7569'
p1510
(lp1511
S'101-67-7'
p1512
aS''
asS'8449'
p1513
(lp1514
S'120-83-2'
p1515
aS''
asS'6874'
p1516
(lp1517
S'87-20-7'
p1518
aS''
asS'11369'
p1519
(lp1520
S'579-66-8'
p1521
aS''
asS'5478'
p1522
(lp1523
S'26839-75-8'
p1524
aS''
asS'2762'
p1525
(lp1526
S'28657-80-9'
p1527
aS''
asS'5090'
p1528
(lp1529
S'162011-90-7'
p1530
aS''
asS'4044'
p1531
(lp1532
S'61-68-7'
p1533
aS''
asS'9521'
p1534
(lp1535
S'333-18-6'
p1536
aS''
asS'385'
p1537
(lp1538
S'111-16-0'
p1539
aS'111-16-0'
p1540
aS''
asS'6176'
p1541
(lp1542
S'65-47-4'
p1543
aS''
asS'6172'
p1544
(lp1545
S'65-29-2'
p1546
aS''
asS'12722'
p1547
(lp1548
S'690-39-1'
p1549
aS''
asS'6171'
p1550
(lp1551
S'65-22-5'
p1552
aS''
asS'4753'
p1553
(lp1554
S'63-98-9'
p1555
aS''
asS'6772'
p1556
(lp1557
S'84-51-5'
p1558
aS''
asS'6942'
p1559
(lp1560
S'88-68-6'
p1561
aS''
asS'5870'
p1562
(lp1563
S'53-16-7'
p1564
aS''
asS'5875'
p1565
(lp1566
S'53-33-8'
p1567
aS''
asS'175'
p1568
(lp1569
S'64-19-7'
p1570
aS''
asS'5878'
p1571
(lp1572
S'53-39-4'
p1573
aS''
asS'11291'
p1574
(lp1575
S'82-88-2'
p1576
aS''
asS'3759'
p1577
(lp1578
S'59-63-2'
p1579
aS''
asS'7057'
p1580
(lp1581
S'91-59-8'
p1582
aS'91-59-8'
p1583
aS''
asS'4633'
p1584
(lp1585
S'99-43-4'
p1586
aS''
asS'4632'
p1587
(lp1588
S'131-57-7'
p1589
aS'131-57-7'
p1590
aS''
asS'4631'
p1591
(lp1592
S'6452-71-7'
p1593
aS''
asS'13521'
p1594
(lp1595
S'919-30-2'
p1596
aS''
asS'13526'
p1597
(lp1598
S'919-86-8'
p1599
aS''
asS'4636'
p1600
(lp1601
S'1491-59-4'
p1602
aS''
asS'4634'
p1603
(lp1604
S'5633-20-5'
p1605
aS''
asS'252'
p1606
(lp1607
S'6779-87-9'
p1608
aS''
asS'251'
p1609
(lp1610
S'114-25-0'
p1611
aS''
asS'254'
p1612
(lp1613
S'1133-63-7'
p1614
aS''
asS'860'
p1615
(lp1616
S'463-40-1'
p1617
aS''
asS'11741'
p1618
(lp1619
S'599-61-1'
p1620
aS''
asS'11742'
p1621
(lp1622
S'599-64-4'
p1623
aS''
asS'3559'
p1624
(lp1625
S'52-86-8'
p1626
aS''
asS'12035'
p1627
(lp1628
S'616-91-1'
p1629
aS''
asS'6688'
p1630
(lp1631
S'81-64-1'
p1632
aS''
asS'11583'
p1633
(lp1634
S'591-78-6'
p1635
aS'591-78-6'
p1636
aS''
asS'6680'
p1637
(lp1638
S'81-48-1'
p1639
aS''
asS'4058'
p1640
(lp1641
S'57-42-1'
p1642
aS''
asS'2343'
p1643
(lp1644
S'91-33-8'
p1645
aS''
asS'12989'
p1646
(lp1647
S'763-69-9'
p1648
aS''
asS'7849'
p1649
(lp1650
S'107-04-0'
p1651
aS''
asS'7848'
p1652
(lp1653
S'107-03-9'
p1654
aS'107-03-9'
p1655
aS'107-03-9'
p1656
aS''
asS'7844'
p1657
(lp1658
S'106-98-9'
p1659
aS'25167-67-3'
p1660
aS''
asS'7847'
p1661
(lp1662
S'107-02-8'
p1663
aS'107-02-8'
p1664
aS'107-02-8'
p1665
aS''
asS'7846'
p1666
(lp1667
S'107-00-6'
p1668
aS''
asS'7840'
p1669
(lp1670
S'106-94-5'
p1671
aS''
asS'7843'
p1672
(lp1673
S'106-97-8'
p1674
aS'68476-42-6'
p1675
aS'68514-31-8'
p1676
aS'106-97-8'
p1677
aS'106-97-8'
p1678
aS''
asS'6356'
p1679
(lp1680
S'7637-07-2'
p1681
aS'7637-07-2'
p1682
aS'7637-07-2'
p1683
aS''
asS'12106'
p1684
(lp1685
S'25586-42-9'
p1686
aS''
asS'3689'
p1687
(lp1688
S'23210-56-2'
p1689
aS''
asS'6355'
p1690
(lp1691
S'75-23-0'
p1692
aS''
asS'3687'
p1693
(lp1694
S'54-42-2'
p1695
aS''
asS'4837'
p1696
(lp1697
S'110-85-0'
p1698
aS'110-85-0'
p1699
aS''
asS'6194'
p1700
(lp1701
S'66-75-1'
p1702
aS''
asS'7992'
p1703
(lp1704
S'109-53-5'
p1705
aS''
asS'7991'
p1706
(lp1707
S'109-52-4'
p1708
aS'109-52-4'
p1709
aS''
asS'4762'
p1710
(lp1711
S'134-49-6'
p1712
aS''
asS'7997'
p1713
(lp1714
S'109-60-4'
p1715
aS'109-60-4'
p1716
aS'109-60-4'
p1717
aS'109-60-4'
p1718
aS''
asS'2519'
p1719
(lp1720
S'58-08-2'
p1721
aS'58-08-2'
p1722
aS''
asS'7994'
p1723
(lp1724
S'109-56-8'
p1725
aS''
asS'6741'
p1726
(lp1727
S'83-43-2'
p1728
aS''
asS'9434'
p1729
(lp1730
S'317-52-2'
p1731
aS''
asS'9433'
p1732
(lp1733
S'317-34-0'
p1734
aS''
asS'4764'
p1735
(lp1736
S'77-09-8'
p1737
aS''
asS'2735'
p1738
(lp1739
S'67-97-0'
p1740
aS''
asS'4421'
p1741
(lp1742
S'389-08-2'
p1743
aS''
asS'2730'
p1744
(lp1745
S'2921-88-2'
p1746
aS'2921-88-2'
p1747
aS''
asS'2732'
p1748
(lp1749
S'77-36-1'
p1750
aS''
asS'2733'
p1751
(lp1752
S'95-25-0'
p1753
aS''
asS'5291'
p1754
(lp1755
S'152459-95-5'
p1756
aS''
asS'3532'
p1757
(lp1758
S'498-96-4'
p1759
aS''
asS'5054'
p1760
(lp1761
S'108-46-3'
p1762
aS'108-46-3'
p1763
aS'108-46-3'
p1764
aS''
asS'9410'
p1765
(lp1766
S'41372-20-7'
p1767
aS''
asS'6944'
p1768
(lp1769
S'88-72-2'
p1770
aS'88-72-2'
p1771
aS'88-72-2'
p1772
aS''
asS'9411'
p1773
(lp1774
S'314-40-9'
p1775
aS'314-40-9'
p1776
aS''
asS'14885'
p1777
(lp1778
S'1325-82-2'
p1779
aS''
asS'10761'
p1780
(lp1781
S'532-40-1'
p1782
aS''
asS'6221'
p1783
(lp1784
S'67-97-0'
p1785
aS''
asS'12217'
p1786
(lp1787
S'624-54-4'
p1788
aS''
asS'6227'
p1789
(lp1790
S'79-08-3'
p1791
aS''
asS'6224'
p1792
(lp1793
S'68-04-2'
p1794
aS''
asS'6228'
p1795
(lp1796
S'68-12-2'
p1797
aS'68-12-2'
p1798
aS'68-12-2'
p1799
aS'68-12-2'
p1800
aS''
asS'8143'
p1801
(lp1802
S'111-86-4'
p1803
aS''
asS'8197'
p1804
(lp1805
S'112-57-2'
p1806
aS''
asS'10509'
p1807
(lp1808
S'509-14-8'
p1809
aS'509-14-8'
p1810
aS''
asS'8146'
p1811
(lp1812
S'111-90-0'
p1813
aS''
asS'2307'
p1814
(lp1815
S'5534-09-8'
p1816
aS''
asS'10635'
p1817
(lp1818
S'521-18-6'
p1819
aS''
asS'4162'
p1820
(lp1821
S'125-64-4'
p1822
aS''
asS'7337'
p1823
(lp1824
S'97-52-9'
p1825
aS''
asS'13075'
p1826
(lp1827
S'780-69-8'
p1828
aS''
asS'9294'
p1829
(lp1830
S'299-42-3'
p1831
aS''
asS'1978'
p1832
(lp1833
S'37517-30-9'
p1834
aS''
asS'1601'
p1835
(lp1836
S'73-04-1'
p1837
aS''
asS'3224'
p1838
(lp1839
S'115-29-7'
p1840
aS'115-29-7'
p1841
aS''
asS'9298'
p1842
(lp1843
S'299-84-3'
p1844
aS'299-84-3'
p1845
aS''
asS'3226'
p1846
(lp1847
S'13838-16-9'
p1848
aS'13838-16-9'
p1849
aS'13838-16-9'
p1850
aS''
asS'7339'
p1851
(lp1852
S'13270-65-0'
p1853
aS''
asS'3222'
p1854
(lp1855
S'75847-73-3'
p1856
aS''
asS'11966'
p1857
(lp1858
S'614-45-9'
p1859
aS''
asS'8858'
p1860
(lp1861
S'141-79-7'
p1862
aS'141-79-7'
p1863
aS'141-79-7'
p1864
aS''
asS'8853'
p1865
(lp1866
S'141-63-9'
p1867
aS''
asS'8852'
p1868
(lp1869
S'141-62-8'
p1870
aS''
asS'8850'
p1871
(lp1872
S'141-57-1'
p1873
aS''
asS'807'
p1874
(lp1875
S'7553-56-2'
p1876
aS'7553-56-2'
p1877
aS'7553-56-2'
p1878
aS''
asS'33'
p1879
(lp1880
S'107-20-0'
p1881
aS'107-20-0'
p1882
aS''
asS'805'
p1883
(lp1884
S'47055-78-7'
p1885
aS''
asS'13712'
p1886
(lp1887
S'951-78-0'
p1888
aS''
asS'4004'
p1889
(lp1890
S'121-75-5'
p1891
aS'121-75-5'
p1892
aS'121-75-5'
p1893
aS''
asS'3132'
p1894
(lp1895
S'76721-89-6'
p1896
aS''
asS'4756'
p1897
(lp1898
S'94-78-0'
p1899
aS''
asS'3324'
p1900
(lp1901
S'104227-87-4'
p1902
aS''
asS'10213'
p1903
(lp1904
S'13291-61-7'
p1905
aS''
asS'3327'
p1906
(lp1907
S'4602-84-0'
p1908
aS''
asS'14264'
p1909
(lp1910
S'1120-71-4'
p1911
aS'1120-71-4'
p1912
aS''
asS'4168'
p1913
(lp1914
S'364-62-5'
p1915
aS''
asS'14260'
p1916
(lp1917
S'1120-36-1'
p1918
aS''
asS'5479'
p1919
(lp1920
S'19387-91-8'
p1921
aS''
asS'1775'
p1922
(lp1923
S'57-41-0'
p1924
aS''
asS'5277'
p1925
(lp1926
S'10418-03-8'
p1927
aS''
asS'10180'
p1928
(lp1929
S'479-50-5'
p1930
aS''
asS'7050'
p1931
(lp1932
S'91-44-1'
p1933
aS''
asS'5279'
p1934
(lp1935
S'62996-74-1'
p1936
aS''
asS'7054'
p1937
(lp1938
S'91-56-5'
p1939
aS''
asS'7055'
p1940
(lp1941
S'91-57-6'
p1942
aS''
asS'8148'
p1943
(lp1944
S'111-92-2'
p1945
aS''
asS'6998'
p1946
(lp1947
S'90-02-8'
p1948
aS''
asS'8141'
p1949
(lp1950
S'111-84-2'
p1951
aS'111-84-2'
p1952
aS''
asS'6996'
p1953
(lp1954
S'89-98-5'
p1955
aS''
asS'6997'
p1956
(lp1957
S'90-00-6'
p1958
aS''
asS'8144'
p1959
(lp1960
S'111-88-6'
p1961
aS'111-88-6'
p1962
aS'111-88-6'
p1963
aS''
asS'1152'
p1964
(lp1965
S'7783-03-1'
p1966
aS''
asS'5510'
p1967
(lp1968
S'2398-96-1'
p1969
aS''
asS'7635'
p1970
(lp1971
S'103-09-3'
p1972
aS''
asS'5512'
p1973
(lp1974
S'124937-51-5'
p1975
aS''
asS'3039'
p1976
(lp1977
S'62-73-7'
p1978
aS'62-73-7'
p1979
aS''
asS'3038'
p1980
(lp1981
S'120-97-8'
p1982
aS''
asS'58'
p1983
(lp1984
S'600-18-0'
p1985
aS''
asS'3036'
p1986
(lp1987
S'50-29-3'
p1988
aS'50-29-3'
p1989
aS''
asS'3030'
p1990
(lp1991
S'1918-00-9'
p1992
aS''
asS'3033'
p1993
(lp1994
S'15307-86-5'
p1995
aS''
asS'535'
p1996
(lp1997
S'22059-21-8'
p1998
aS''
asS'8704'
p1999
(lp2000
S'136-84-5'
p2001
aS''
asS'8709'
p2002
(lp2003
S'136-99-2'
p2004
aS''
asS'3299'
p2005
(lp2006
S'29177-84-2'
p2007
aS''
asS'8034'
p2008
(lp2009
S'110-12-3'
p2010
aS'110-12-3'
p2011
aS'110-12-3'
p2012
aS''
asS'8037'
p2013
(lp2014
S'110-18-9'
p2015
aS''
asS'8031'
p2016
(lp2017
S'110-03-2'
p2018
aS''
asS'8038'
p2019
(lp2020
S'110-19-0'
p2021
aS'110-19-0'
p2022
aS'110-19-0'
p2023
aS''
asS'2995'
p2024
(lp2025
S'50-47-5'
p2026
aS''
asS'9999'
p2027
(lp2028
S'460-19-5'
p2029
aS'460-19-5'
p2030
aS''
asS'5604'
p2031
(lp2032
S'69-33-0'
p2033
aS''
asS'12588'
p2034
(lp2035
S'646-13-9'
p2036
aS''
asS'5601'
p2037
(lp2038
S'326-91-0'
p2039
aS''
asS'9993'
p2040
(lp2041
S'460-00-4'
p2042
aS''
asS'9632'
p2043
(lp2044
S'354-25-6'
p2045
aS''
asS'6518'
p2046
(lp2047
S'78-11-5'
p2048
aS''
asS'9633'
p2049
(lp2050
S'354-33-6'
p2051
aS''
asS'6510'
p2052
(lp2053
S'77-99-6'
p2054
aS''
asS'6511'
p2055
(lp2056
S'78-00-2'
p2057
aS'78-00-2'
p2058
aS'78-00-2'
p2059
aS''
asS'6514'
p2060
(lp2061
S'107-96-0'
p2062
aS''
asS'6516'
p2063
(lp2064
S'78-08-0'
p2065
aS''
asS'6517'
p2066
(lp2067
S'78-10-4'
p2068
aS'78-10-4'
p2069
aS'78-10-4'
p2070
aS''
asS'11143'
p2071
(lp2072
S'555-31-7'
p2073
aS''
asS'421'
p2074
(lp2075
S'462-20-4'
p2076
aS''
asS'1390'
p2077
(lp2078
S'616-47-7'
p2079
aS'616-47-7'
p2080
aS''
asS'3813'
p2081
(lp2082
S'97161-97-2'
p2083
aS''
asS'3817'
p2084
(lp2085
S'192725-17-0'
p2086
aS''
asS'855'
p2087
(lp2088
S'598-35-6'
p2089
aS''
asS'856'
p2090
(lp2091
S'79-63-0'
p2092
aS''
asS'3956'
p2093
(lp2094
S'76470-66-1'
p2095
aS''
asS'8456'
p2096
(lp2097
S'25013-16-5'
p2098
aS''
asS'8455'
p2099
(lp2100
S'120-95-6'
p2101
aS''
asS'8453'
p2102
(lp2103
S'120-93-4'
p2104
aS''
asS'8452'
p2105
(lp2106
S'120-92-3'
p2107
aS''
asS'7098'
p2108
(lp2109
S'92-59-1'
p2110
aS''
asS'850'
p2111
(lp2112
S'60802-29-1'
p2113
aS''
asS'8458'
p2114
(lp2115
S'121-03-9'
p2116
aS''
asS'6426'
p2117
(lp2118
S'76-11-9'
p2119
aS'76-11-9'
p2120
aS''
asS'6427'
p2121
(lp2122
S'76-12-0'
p2123
aS'76-12-0'
p2124
aS''
asS'6421'
p2125
(lp2126
S'76-03-9'
p2127
aS'76-03-9'
p2128
aS''
asS'6422'
p2129
(lp2130
S'76-05-1'
p2131
aS''
asS'6423'
p2132
(lp2133
S'76-06-2'
p2134
aS'76-06-2'
p2135
aS''
asS'11357'
p2136
(lp2137
S'578-54-1'
p2138
aS''
asS'6429'
p2139
(lp2140
S'76-14-2'
p2141
aS'76-14-2'
p2142
aS'76-14-2'
p2143
aS''
asS'7540'
p2144
(lp2145
S'101-02-0'
p2146
aS''
asS'7543'
p2147
(lp2148
S'101-14-4'
p2149
aS'101-14-4'
p2150
aS'101-14-4'
p2151
aS''
asS'4923'
p2152
(lp2153
S'500-92-5'
p2154
aS''
asS'11529'
p2155
(lp2156
S'590-01-2'
p2157
aS''
asS'7261'
p2158
(lp2159
S'95-80-7'
p2160
aS'25376-45-8<br/>95-80-7(2,4-TDA)'
p2161
asS'12738'
p2162
(lp2163
S'693-36-7'
p2164
aS''
asS'6163'
p2165
(lp2166
S'64-67-5'
p2167
aS''
asS'12733'
p2168
(lp2169
S'693-07-2'
p2170
aS''
asS'12736'
p2171
(lp2172
S'693-23-2'
p2173
aS''
asS'8033'
p2174
(lp2175
S'110-05-4'
p2176
aS''
asS'10997'
p2177
(lp2178
S'544-17-2'
p2179
aS''
asS'4740'
p2180
(lp2181
S'6493-05-6'
p2182
aS''
asS'4747'
p2183
(lp2184
S'2622-26-6'
p2185
aS''
asS'5865'
p2186
(lp2187
S'53-03-2'
p2188
aS''
asS'5862'
p2189
(lp2190
S'52-90-4'
p2191
aS'921-01-7'
p2192
aS'52-90-4'
p2193
aS''
asS'11236'
p2194
(lp2195
S'563-41-7'
p2196
aS''
asS'2332'
p2197
(lp2198
S'618-39-3'
p2199
aS''
asS'12988'
p2200
(lp2201
S'763-32-6'
p2202
aS''
asS'12025'
p2203
(lp2204
S'616-45-5'
p2205
aS''
asS'12021'
p2206
(lp2207
S'616-38-6'
p2208
aS''
asS'12023'
p2209
(lp2210
S'616-43-3'
p2211
aS''
asS'227'
p2212
(lp2213
S'118-92-3'
p2214
aS''
asS'4604'
p2215
(lp2216
S'937-13-3'
p2217
aS''
asS'4605'
p2218
(lp2219
S'630-60-4'
p2220
aS''
asS'222'
p2221
(lp2222
S'7664-41-7'
p2223
aS'7664-41-7'
p2224
aS'7664-41-7'
p2225
aS''
asS'13511'
p2226
(lp2227
S'917-70-4'
p2228
aS''
asS'4601'
p2229
(lp2230
S'83-98-7'
p2231
aS''
asS'2336'
p2232
(lp2233
S'50-32-8'
p2234
aS'50-32-8'
p2235
aS''
asS'13676'
p2236
(lp2237
S'944-22-9'
p2238
aS'944-22-9'
p2239
aS''
asS'2337'
p2240
(lp2241
S'94-09-7'
p2242
aS'94-09-7'
p2243
aS''
asS'7099'
p2244
(lp2245
S'92-62-6'
p2246
aS''
asS'12238'
p2247
(lp2248
S'625-16-1'
p2249
aS''
asS'6693'
p2250
(lp2251
S'81-84-5'
p2252
aS''
asS'3375'
p2253
(lp2254
S'2557-49-5'
p2255
aS''
asS'6690'
p2256
(lp2257
S'81-77-6'
p2258
aS''
asS'6694'
p2259
(lp2260
S'81-88-9'
p2261
aS''
asS'159'
p2262
(lp2263
S'35121-78-9'
p2264
aS''
asS'2431'
p2265
(lp2266
S'59-41-6'
p2267
aS''
asS'2435'
p2268
(lp2269
S'59803-98-4'
p2270
aS''
asS'6137'
p2271
(lp2272
S'63-68-3'
p2273
aS''
asS'7838'
p2274
(lp2275
S'106-92-3'
p2276
aS'106-92-3'
p2277
aS'106-92-3'
p2278
aS''
asS'7839'
p2279
(lp2280
S'106-93-4'
p2281
aS'106-93-4'
p2282
aS'106-93-4'
p2283
aS''
asS'8135'
p2284
(lp2285
S'111-78-4'
p2286
aS''
asS'7832'
p2287
(lp2288
S'106-86-5'
p2289
aS''
asS'7833'
p2290
(lp2291
S'106-87-6'
p2292
aS'106-87-6'
p2293
aS''
asS'7834'
p2294
(lp2295
S'106-88-7'
p2296
aS''
asS'7835'
p2297
(lp2298
S'106-89-8'
p2299
aS'106-89-8'
p2300
aS'106-89-8'
p2301
aS''
asS'6341'
p2302
(lp2303
S'75-04-7'
p2304
aS'75-04-7'
p2305
aS'75-04-7'
p2306
aS''
asS'12111'
p2307
(lp2308
S'620-92-8'
p2309
aS''
asS'6343'
p2310
(lp2311
S'75-08-1'
p2312
aS'75-08-1'
p2313
aS'75-08-1'
p2314
aS''
asS'6342'
p2315
(lp2316
S'75-05-8'
p2317
aS'75-05-8'
p2318
aS'75-05-8'
p2319
aS''
asS'6345'
p2320
(lp2321
S'75-10-5'
p2322
aS''
asS'6344'
p2323
(lp2324
S'75-09-2'
p2325
aS'75-09-2'
p2326
aS'75-09-2'
p2327
aS''
asS'6348'
p2328
(lp2329
S'75-15-0'
p2330
aS'75-15-0'
p2331
aS'75-15-0'
p2332
aS''
asS'4510'
p2333
(lp2334
S'55-63-0'
p2335
aS'55-63-0'
p2336
aS'55-63-0'
p2337
aS'55-63-0'
p2338
aS''
asS'12586'
p2339
(lp2340
S'646-06-0'
p2341
aS'646-06-0'
p2342
aS''
asS'9429'
p2343
(lp2344
S'316-81-4'
p2345
aS''
asS'6184'
p2346
(lp2347
S'66-25-1'
p2348
aS''
asS'8132'
p2349
(lp2350
S'111-75-1'
p2351
aS''
asS'11641'
p2352
(lp2353
S'593-60-2'
p2354
aS'593-60-2'
p2355
aS''
asS'8133'
p2356
(lp2357
S'111-76-2'
p2358
aS'111-76-2'
p2359
aS'111-76-2'
p2360
aS''
asS'9427'
p2361
(lp2362
S'316-46-1'
p2363
aS''
asS'2727'
p2364
(lp2365
S'94-20-2'
p2366
aS''
asS'2726'
p2367
(lp2368
S'50-53-3'
p2369
aS''
asS'2725'
p2370
(lp2371
S'132-22-9'
p2372
aS''
asS'2722'
p2373
(lp2374
S'773-76-2'
p2375
aS''
asS'2720'
p2376
(lp2377
S'58-94-6'
p2378
aS''
asS'5281'
p2379
(lp2380
S'57-11-4'
p2381
aS'57-11-4'
p2382
aS''
asS'7608'
p2383
(lp2384
S'102-45-4'
p2385
aS''
asS'7294'
p2386
(lp2387
S'96-33-3'
p2388
aS'96-33-3'
p2389
aS'96-33-3'
p2390
aS''
asS'2729'
p2391
(lp2392
S'113-59-7'
p2393
aS''
asS'7237'
p2394
(lp2395
S'95-47-6'
p2396
aS'95-47-6'
p2397
aS'95-47-6'
p2398
aS''
asS'7946'
p2399
(lp2400
S'108-65-6'
p2401
aS''
asS'7940'
p2402
(lp2403
S'108-55-4'
p2404
aS''
asS'7233'
p2405
(lp2406
S'21652-27-7'
p2407
aS'95-38-5'
p2408
aS''
asS'7230'
p2409
(lp2410
S'95-31-8'
p2411
aS''
asS'7943'
p2412
(lp2413
S'108-59-8'
p2414
aS''
asS'7623'
p2415
(lp2416
S'102-85-2'
p2417
aS''
asS'7948'
p2418
(lp2419
S'108-68-9'
p2420
aS''
asS'7238'
p2421
(lp2422
S'95-49-8'
p2423
aS'95-49-8'
p2424
aS'95-49-8'
p2425
aS''
asS'7239'
p2426
(lp2427
S'95-50-1'
p2428
aS'95-50-1'
p2429
aS'95-50-1'
p2430
aS''
asS'3042'
p2431
(lp2432
S'77-19-0'
p2433
aS''
asS'3783'
p2434
(lp2435
S'395-28-8'
p2436
aS''
asS'1805'
p2437
(lp2438
S'320-67-2'
p2439
aS''
asS'3781'
p2440
(lp2441
S'482-15-5'
p2442
aS''
asS'3784'
p2443
(lp2444
S'75695-93-1'
p2445
aS''
asS'1808'
p2446
(lp2447
S'28733-43-9'
p2448
aS''
asS'3410'
p2449
(lp2450
S'73573-87-2'
p2451
aS''
asS'10770'
p2452
(lp2453
S'532-77-4'
p2454
aS''
asS'4992'
p2455
(lp2456
S'91-84-9'
p2457
aS''
asS'12209'
p2458
(lp2459
S'624-41-9'
p2460
aS'624-41-9'
p2461
aS''
asS'4991'
p2462
(lp2463
S'155-97-5'
p2464
aS''
asS'6234'
p2465
(lp2466
S'68-41-7'
p2467
aS''
asS'126'
p2468
(lp2469
S'123-08-0'
p2470
aS''
asS'12201'
p2471
(lp2472
S'141-05-9'
p2473
aS''
asS'4999'
p2474
(lp2475
S'36735-22-5'
p2476
aS''
asS'14677'
p2477
(lp2478
S'1982-37-2'
p2479
aS''
asS'11820'
p2480
(lp2481
S'606-43-9'
p2482
aS''
asS'10518'
p2483
(lp2484
S'509-86-4'
p2485
aS''
asS'9024'
p2486
(lp2487
S'151-05-3'
p2488
aS''
asS'9775'
p2489
(lp2490
S'374-07-2'
p2491
aS''
asS'10517'
p2492
(lp2493
S'509-74-0'
p2494
aS''
asS'7303'
p2495
(lp2496
S'96-49-1'
p2497
aS''
asS'1949'
p2498
(lp2499
S'161582-11-2'
p2500
aS''
asS'9287'
p2501
(lp2502
S'299-26-3'
p2503
aS''
asS'7309'
p2504
(lp2505
S'96-70-8'
p2506
aS''
asS'8868'
p2507
(lp2508
S'141-97-9'
p2509
aS''
asS'11915'
p2510
(lp2511
S'611-73-4'
p2512
aS''
asS'11914'
p2513
(lp2514
S'611-71-2'
p2515
aS''
asS'811'
p2516
(lp2517
S'97-65-4'
p2518
aS''
asS'3767'
p2519
(lp2520
S'54-85-3'
p2521
aS''
asS'3333'
p2522
(lp2523
S'72509-76-3'
p2524
aS''
asS'14218'
p2525
(lp2526
S'1115-20-4'
p2527
aS''
asS'7047'
p2528
(lp2529
S'91-22-5'
p2530
aS''
asS'1493'
p2531
(lp2532
S'51-28-5'
p2533
aS''
asS'3337'
p2534
(lp2535
S'458-24-2'
p2536
aS'3239-44-9'
p2537
aS''
asS'3336'
p2538
(lp2539
S'13042-18-7'
p2540
aS''
asS'7043'
p2541
(lp2542
S'91-16-7'
p2543
aS''
asS'5468'
p2544
(lp2545
S'33005-95-7'
p2546
aS''
asS'3339'
p2547
(lp2548
S'49562-28-9'
p2549
aS''
asS'3563'
p2550
(lp2551
S'59128-97-1'
p2552
aS''
asS'8002'
p2553
(lp2554
S'109-65-9'
p2555
aS''
asS'14183'
p2556
(lp2557
S'1095-66-5'
p2558
aS''
asS'3658'
p2559
(lp2560
S'68-88-2'
p2561
aS''
asS'1129'
p2562
(lp2563
S'135-16-0'
p2564
aS'135-16-0'
p2565
aS''
asS'6989'
p2566
(lp2567
S'89-83-8'
p2568
aS'89-83-8'
p2569
aS''
asS'6986'
p2570
(lp2571
S'10458-14-7'
p2572
aS''
asS'1123'
p2573
(lp2574
S'107-35-7'
p2575
aS''
asS'8606'
p2576
(lp2577
S'133-06-2'
p2578
aS'133-06-2'
p2579
aS''
asS'1125'
p2580
(lp2581
S'17528-72-2'
p2582
aS''
asS'1127'
p2583
(lp2584
S'110-01-0'
p2585
aS''
asS'11138'
p2586
(lp2587
S'554-95-0'
p2588
aS''
asS'4472'
p2589
(lp2590
S'51-12-7'
p2591
aS''
asS'3026'
p2592
(lp2593
S'84-74-2'
p2594
aS'84-74-2'
p2595
aS'84-74-2'
p2596
aS''
asS'3025'
p2597
(lp2598
S'85-79-0'
p2599
aS''
asS'3024'
p2600
(lp2601
S'74-95-3'
p2602
aS''
asS'9084'
p2603
(lp2604
S'141-82-2'
p2605
aS''
asS'13769'
p2606
(lp2607
S'968-93-4'
p2608
aS''
asS'525'
p2609
(lp2610
S'6915-15-7'
p2611
aS''
asS'527'
p2612
(lp2613
S'123-38-6'
p2614
aS''
asS'4477'
p2615
(lp2616
S'50-65-7'
p2617
aS''
asS'8738'
p2618
(lp2619
S'138-22-7'
p2620
aS'138-22-7'
p2621
aS'138-22-7'
p2622
aS''
asS'1014'
p2623
(lp2624
S'107-73-3'
p2625
aS''
asS'1015'
p2626
(lp2627
S'1071-23-4'
p2628
aS''
asS'1017'
p2629
(lp2630
S'88-99-3'
p2631
aS''
asS'529'
p2632
(lp2633
S'13147-57-4'
p2634
aS''
asS'8730'
p2635
(lp2636
S'51-49-0'
p2637
aS''
asS'8041'
p2638
(lp2639
S'110-26-9'
p2640
aS''
asS'8042'
p2641
(lp2642
S'110-27-0'
p2643
aS''
asS'8043'
p2644
(lp2645
S'110-29-2'
p2646
aS''
asS'8044'
p2647
(lp2648
S'110-30-5'
p2649
aS''
asS'11867'
p2650
(lp2651
S'1333-39-7'
p2652
aS''
asS'4199'
p2653
(lp2654
S'25905-77-5'
p2655
aS''
asS'4197'
p2656
(lp2657
S'78415-72-2'
p2658
aS''
asS'4195'
p2659
(lp2660
S'133163-28-7'
p2661
aS''
asS'4192'
p2662
(lp2663
S'59467-70-8'
p2664
aS''
asS'5672'
p2665
(lp2666
S'71486-22-1'
p2667
aS''
asS'8285'
p2668
(lp2669
S'115-77-5'
p2670
aS'115-77-5'
p2671
aS'115-77-5'
p2672
aS''
asS'8282'
p2673
(lp2674
S'115-70-8'
p2675
aS''
asS'8280'
p2676
(lp2677
S'115-67-3'
p2678
aS''
asS'8289'
p2679
(lp2680
S'115-86-6'
p2681
aS'115-86-6'
p2682
aS'115-86-6'
p2683
aS''
asS'6509'
p2684
(lp2685
S'77-98-5'
p2686
aS''
asS'11005'
p2687
(lp2688
S'544-63-8'
p2689
aS''
asS'6503'
p2690
(lp2691
S'77-86-1'
p2692
aS''
asS'6502'
p2693
(lp2694
S'77-85-0'
p2695
aS''
asS'6507'
p2696
(lp2697
S'77-94-1'
p2698
aS''
asS'6506'
p2699
(lp2700
S'77-93-0'
p2701
aS''
asS'6505'
p2702
(lp2703
S'77-90-7'
p2704
aS''
asS'6504'
p2705
(lp2706
S'77-89-4'
p2707
aS''
asS'2484'
p2708
(lp2709
S'101828-21-1'
p2710
aS''
asS'4075'
p2711
(lp2712
S'89-57-6'
p2713
aS''
asS'4674'
p2714
(lp2715
S'40391-99-9'
p2716
aS''
asS'11430'
p2717
(lp2718
S'584-08-7'
p2719
aS''
asS'11345'
p2720
(lp2721
S'25321-09-9'
p2722
aS''
asS'8461'
p2723
(lp2724
S'121-14-2'
p2725
aS'121-14-2'
p2726
aS''
asS'8467'
p2727
(lp2728
S'121-32-4'
p2729
aS''
asS'8468'
p2730
(lp2731
S'121-34-6'
p2732
aS''
asS'13561'
p2733
(lp2734
S'71808-49-6'
p2735
aS''
asS'8192'
p2736
(lp2737
S'112-52-7'
p2738
aS''
asS'8193'
p2739
(lp2740
S'112-53-8'
p2741
aS''
asS'8190'
p2742
(lp2743
S'112-50-5'
p2744
aS''
asS'6432'
p2745
(lp2746
S'76-19-7'
p2747
aS'76-19-7'
p2748
aS''
asS'6431'
p2749
(lp2750
S'76-16-4'
p2751
aS''
asS'6430'
p2752
(lp2753
S'76-15-3'
p2754
aS'76-15-3'
p2755
aS''
asS'5405'
p2756
(lp2757
S'50679-08-8'
p2758
aS''
asS'8199'
p2759
(lp2760
S'112-59-4'
p2761
aS''
asS'8690'
p2762
(lp2763
S'136-36-7'
p2764
aS''
asS'7558'
p2765
(lp2766
S'3595-11-7'
p2767
aS''
asS'7253'
p2768
(lp2769
S'95-71-6'
p2770
aS''
asS'7557'
p2771
(lp2772
S'101-39-3'
p2773
aS''
asS'7555'
p2774
(lp2775
S'101-37-1'
p2776
aS''
asS'49'
p2777
(lp2778
S'759-05-7'
p2779
aS''
asS'4685'
p2780
(lp2781
S'106-46-7'
p2782
aS'106-46-7'
p2783
aS'106-46-7'
p2784
aS''
asS'4771'
p2785
(lp2786
S'122-09-8'
p2787
aS''
asS'962'
p2788
(lp2789
S'7732-18-5'
p2790
aS''
asS'6037'
p2791
(lp2792
S'59-30-3'
p2793
aS''
asS'4174'
p2794
(lp2795
S'54-36-4'
p2796
aS''
asS'6758'
p2797
(lp2798
S'83-79-4'
p2799
aS'83-79-4'
p2800
aS''
asS'6759'
p2801
(lp2802
S'83-88-5'
p2803
aS''
asS'4170'
p2804
(lp2805
S'17560-51-9'
p2806
aS''
asS'4171'
p2807
(lp2808
S'37350-58-6'
p2809
aS''
asS'4173'
p2810
(lp2811
S'443-48-1'
p2812
aS''
asS'5819'
p2813
(lp2814
S'51-48-9'
p2815
aS''
asS'5810'
p2816
(lp2817
S'51-35-4'
p2818
aS''
asS'5816'
p2819
(lp2820
S'51-43-4'
p2821
aS''
asS'4211'
p2822
(lp2823
S'53-19-0'
p2824
aS''
asS'14240'
p2825
(lp2826
S'1118-92-9'
p2827
aS''
asS'7394'
p2828
(lp2829
S'98-56-6'
p2830
aS''
asS'6428'
p2831
(lp2832
S'76-13-1'
p2833
aS'76-13-1'
p2834
aS'76-13-1'
p2835
aS''
asS'13981'
p2836
(lp2837
S'1052-38-6'
p2838
aS''
asS'4619'
p2839
(lp2840
S'468-61-1'
p2841
aS''
asS'12053'
p2842
(lp2843
S'617-94-7'
p2844
aS''
asS'239'
p2845
(lp2846
S'107-95-9'
p2847
aS''
asS'234'
p2848
(lp2849
S'7778-39-4'
p2850
aS'7778-39-4'
p2851
aS''
asS'4610'
p2852
(lp2853
S'694-83-7'
p2854
aS''
asS'237'
p2855
(lp2856
S'83-89-6'
p2857
aS''
asS'231'
p2858
(lp2859
S'506-32-1'
p2860
aS''
asS'4616'
p2861
(lp2862
S'604-75-1'
p2863
aS''
asS'12695'
p2864
(lp2865
S'684-16-2'
p2866
aS'684-16-2'
p2867
aS'684-16-2'
p2868
aS''
asS'4680'
p2869
(lp2870
S'58-74-2'
p2871
aS''
asS'8112'
p2872
(lp2873
S'111-41-1'
p2874
aS''
asS'10836'
p2875
(lp2876
S'537-46-2'
p2877
aS''
asS'5920'
p2878
(lp2879
S'6893-02-3'
p2880
aS''
asS'5147'
p2881
(lp2882
S'65-45-2'
p2883
aS''
asS'146'
p2884
(lp2885
S'134-35-0'
p2886
aS''
asS'5357'
p2887
(lp2888
S'53583-79-2'
p2889
aS''
asS'143'
p2890
(lp2891
S'58-05-9'
p2892
aS''
asS'2468'
p2893
(lp2894
S'692-13-7'
p2895
aS''
asS'6924'
p2896
(lp2897
S'1333-07-9'
p2898
aS''
asS'5143'
p2899
(lp2900
S'81-07-2'
p2901
aS''
asS'4507'
p2902
(lp2903
S'39562-70-4'
p2904
aS''
asS'7828'
p2905
(lp2906
S'106-75-2'
p2907
aS''
asS'7822'
p2908
(lp2909
S'541-85-5'
p2910
aS''
asS'7820'
p2911
(lp2912
S'106-65-0'
p2913
aS''
asS'1055'
p2914
(lp2915
S'447-05-2'
p2916
aS''
asS'2537'
p2917
(lp2918
S'76-22-2'
p2919
aS'76-22-2'
p2920
aS'76-22-2'
p2921
aS'76-22-2'
p2922
aS''
asS'2534'
p2923
(lp2924
S'101932-71-2'
p2925
aS''
asS'2712'
p2926
(lp2927
S'58-25-3'
p2928
aS''
asS'2710'
p2929
(lp2930
S'82-93-9'
p2931
aS''
asS'5453'
p2932
(lp2933
S'52-24-4'
p2934
aS''
asS'2717'
p2935
(lp2936
S'80-77-3'
p2937
aS''
asS'7116'
p2938
(lp2939
S'93-00-5'
p2940
aS''
asS'3346'
p2941
(lp2942
S'55-38-9'
p2943
aS'55-38-9'
p2944
aS''
asS'2719'
p2945
(lp2946
S'54-05-7'
p2947
aS''
asS'9363'
p2948
(lp2949
S'304-84-7'
p2950
aS''
asS'5329'
p2951
(lp2952
S'723-46-6'
p2953
aS''
asS'7071'
p2954
(lp2955
S'91-95-2'
p2956
aS''
asS'7957'
p2957
(lp2958
S'108-82-7'
p2959
aS''
asS'7220'
p2960
(lp2961
S'95-14-7'
p2962
aS''
asS'8987'
p2963
(lp2964
S'147-84-2'
p2965
aS''
asS'7954'
p2966
(lp2967
S'108-77-0'
p2968
aS''
asS'8981'
p2969
(lp2970
S'26780-96-1'
p2971
aS''
asS'7072'
p2972
(lp2973
S'91-97-4'
p2974
aS''
asS'8982'
p2975
(lp2976
S'147-52-4'
p2977
aS''
asS'5073'
p2978
(lp2979
S'106266-06-2'
p2980
aS''
asS'5070'
p2981
(lp2982
S'1744-22-5'
p2983
aS''
asS'5071'
p2984
(lp2985
S'13392-28-4'
p2986
aS''
asS'10695'
p2987
(lp2988
S'527-53-7'
p2989
aS''
asS'10346'
p2990
(lp2991
S'497-39-2'
p2992
aS''
asS'7959'
p2993
(lp2994
S'108-84-9'
p2995
aS'108-84-9'
p2996
aS''
asS'7958'
p2997
(lp2998
S'108-83-8'
p2999
aS'108-83-8'
p3000
aS'108-83-8'
p3001
aS''
asS'284'
p3002
(lp3003
S'64-18-6'
p3004
aS'64-18-6'
p3005
aS'64-18-6'
p3006
aS'64-18-6'
p3007
aS''
asS'2351'
p3008
(lp3009
S'64706-54-3'
p3010
aS''
asS'3793'
p3011
(lp3012
S'84625-61-6'
p3013
aS''
asS'3792'
p3014
(lp3015
S'122898-67-3'
p3016
aS''
asS'2406'
p3017
(lp3018
S'97-18-7'
p3019
aS''
asS'6249'
p3020
(lp3021
S'69-53-4'
p3022
aS''
asS'2405'
p3023
(lp3024
S'66722-44-9'
p3025
aS''
asS'9565'
p3026
(lp3027
S'339-44-6'
p3028
aS''
asS'5210'
p3029
(lp3030
S'106650-56-0'
p3031
aS''
asS'932'
p3032
(lp3033
S'480-41-1'
p3034
aS''
asS'931'
p3035
(lp3036
S'91-20-3'
p3037
aS'91-20-3'
p3038
aS'91-20-3'
p3039
aS''
asS'6245'
p3040
(lp3041
S'69-33-0'
p3042
aS''
asS'935'
p3043
(lp3044
S'7440-02-0'
p3045
aS'7440-02-0'
p3046
aS'7440-02-0'
p3047
aS'7440-02-0'
p3048
aS''
asS'12276'
p3049
(lp3050
S'626-17-5'
p3051
aS'626-17-5'
p3052
aS'626-17-5'
p3053
aS''
asS'4409'
p3054
(lp3055
S'42924-53-8'
p3056
aS''
asS'3249'
p3057
(lp3058
S'50-14-6'
p3059
aS''
asS'8877'
p3060
(lp3061
S'142-17-6'
p3062
aS''
asS'8879'
p3063
(lp3064
S'142-22-3'
p3065
aS''
asS'7311'
p3066
(lp3067
S'96-76-4'
p3068
aS''
asS'7313'
p3069
(lp3070
S'96-80-0'
p3071
aS''
asS'11903'
p3072
(lp3073
S'25550-14-5'
p3074
aS''
asS'12307'
p3075
(lp3076
S'627-13-4'
p3077
aS'627-13-4'
p3078
aS''
asS'11906'
p3079
(lp3080
S'611-19-8'
p3081
aS''
asS'827'
p3082
(lp3083
S'488-81-3'
p3084
aS''
asS'1177'
p3085
(lp3086
S'58-96-8'
p3087
aS''
asS'4046'
p3088
(lp3089
S'53230-10-7'
p3090
aS''
asS'1821'
p3091
(lp3092
S'316-46-1'
p3093
aS''
asS'4312'
p3094
(lp3095
S'51321-79-0'
p3096
aS''
asS'12901'
p3097
(lp3098
S'732-11-6'
p3099
aS''
asS'1483'
p3100
(lp3101
S'118-79-6'
p3102
aS'118-79-6'
p3103
aS''
asS'9015'
p3104
(lp3105
S'150-76-5'
p3106
aS'150-76-5'
p3107
aS'150-76-5'
p3108
aS''
asS'9011'
p3109
(lp3110
S'150-50-5'
p3111
aS''
asS'10235'
p3112
(lp3113
S'485-35-8'
p3114
aS''
asS'3306'
p3115
(lp3116
S'709-55-7'
p3117
aS''
asS'3305'
p3118
(lp3119
S'7414-83-7'
p3120
aS'2809-21-4'
p3121
aS''
asS'3302'
p3122
(lp3123
S'965-90-2'
p3124
aS''
asS'3303'
p3125
(lp3126
S'76-58-4'
p3127
aS''
asS'3301'
p3128
(lp3129
S'107-15-3'
p3130
aS'107-15-3'
p3131
aS'107-15-3'
p3132
aS''
asS'797'
p3133
(lp3134
S'131-99-7'
p3135
aS''
asS'5253'
p3136
(lp3137
S'3930-20-9'
p3138
aS''
asS'795'
p3139
(lp3140
S'288-32-4'
p3141
aS''
asS'790'
p3142
(lp3143
S'68-94-0'
p3144
aS''
asS'10340'
p3145
(lp3146
S'497-19-8'
p3147
aS''
asS'3157'
p3148
(lp3149
S'74191-85-8'
p3150
aS''
asS'6167'
p3151
(lp3152
S'64-86-8'
p3153
aS''
asS'7710'
p3154
(lp3155
S'104-61-0'
p3156
aS''
asS'1133'
p3157
(lp3158
S'68-11-1'
p3159
aS'68-11-1'
p3160
aS'68-11-1'
p3161
aS''
asS'1132'
p3162
(lp3163
S'154-87-0'
p3164
aS''
asS'1131'
p3165
(lp3166
S'532-40-1'
p3167
aS''
asS'1130'
p3168
(lp3169
S'59-43-8'
p3170
aS''
asS'4060'
p3171
(lp3172
S'50-12-4'
p3173
aS''
asS'1135'
p3174
(lp3175
S'65-71-4'
p3176
aS''
asS'11125'
p3177
(lp3178
S'554-13-2'
p3179
aS''
asS'7788'
p3180
(lp3181
S'106-11-6'
p3182
aS''
asS'7789'
p3183
(lp3184
S'106-14-9'
p3185
aS'27924-99-8'
p3186
aS''
asS'7784'
p3187
(lp3188
S'105-99-7'
p3189
aS''
asS'6251'
p3190
(lp3191
S'69-65-8'
p3192
aS'69-65-8'
p3193
aS''
asS'7780'
p3194
(lp3195
S'105-87-3'
p3196
aS'141-12-8'
p3197
aS''
asS'2796'
p3198
(lp3199
S'637-07-0'
p3200
aS''
asS'3011'
p3201
(lp3202
S'1783-84-2'
p3203
aS''
asS'3016'
p3204
(lp3205
S'439-14-5'
p3206
aS''
asS'3017'
p3207
(lp3208
S'333-41-5'
p3209
aS'333-41-5'
p3210
aS''
asS'4971'
p3211
(lp3212
S'553-12-8'
p3213
aS''
asS'8249'
p3214
(lp3215
S'114-86-3'
p3216
aS''
asS'2794'
p3217
(lp3218
S'2030-63-9'
p3219
aS''
asS'8723'
p3220
(lp3221
S'137-32-6'
p3222
aS''
asS'8722'
p3223
(lp3224
S'137-30-4'
p3225
aS''
asS'1003'
p3226
(lp3227
S'29505-79-1'
p3228
aS''
asS'1001'
p3229
(lp3230
S'64-04-0'
p3231
aS''
asS'8053'
p3232
(lp3233
S'110-46-3'
p3234
aS''
asS'8051'
p3235
(lp3236
S'110-43-0'
p3237
aS'110-43-0'
p3238
aS'110-43-0'
p3239
aS''
asS'8502'
p3240
(lp3241
S'122-04-3'
p3242
aS''
asS'8054'
p3243
(lp3244
S'110-49-6'
p3245
aS'110-49-6'
p3246
aS''
asS'8059'
p3247
(lp3248
S'110-56-5'
p3249
aS''
asS'4746'
p3250
(lp3251
S'6621-47-2'
p3252
aS''
asS'6537'
p3253
(lp3254
S'78-42-2'
p3255
aS''
asS'8292'
p3256
(lp3257
S'115-90-2'
p3258
aS'115-90-2'
p3259
aS''
asS'8295'
p3260
(lp3261
S'115-96-8'
p3262
aS''
asS'4745'
p3263
(lp3264
S'66104-22-1'
p3265
aS''
asS'5665'
p3266
(lp3267
S'60643-86-9'
p3268
aS''
asS'8298'
p3269
(lp3270
S'116-02-9'
p3271
aS''
asS'2882'
p3272
(lp3273
S'16110-51-3'
p3274
aS''
asS'2883'
p3275
(lp3276
S'483-63-6'
p3277
aS''
asS'7499'
p3278
(lp3279
S'100-40-3'
p3280
aS'100-40-3'
p3281
aS''
asS'7497'
p3282
(lp3283
S'100-37-8'
p3284
aS'100-37-8'
p3285
aS'100-37-8'
p3286
aS''
asS'8617'
p3287
(lp3288
S'133-32-4'
p3289
aS''
asS'4064'
p3290
(lp3291
S'57-53-4'
p3292
aS''
asS'8913'
p3293
(lp3294
S'143-06-6'
p3295
aS''
asS'8612'
p3296
(lp3297
S'133-16-4'
p3298
aS''
asS'11390'
p3299
(lp3300
S'581-75-9'
p3301
aS''
asS'9385'
p3302
(lp3303
S'306-83-2'
p3304
aS''
asS'864'
p3305
(lp3306
S'62-46-4'
p3307
aS''
asS'14791'
p3308
(lp3309
S'1317-43-7'
p3310
aS''
asS'10133'
p3311
(lp3312
S'474-25-9'
p3313
aS''
asS'3878'
p3314
(lp3315
S'84057-84-1'
p3316
aS''
asS'11807'
p3317
(lp3318
S'124-68-5'
p3319
aS''
asS'3872'
p3320
(lp3321
S'4618-18-2'
p3322
aS''
asS'1893'
p3323
(lp3324
S'2942-42-9'
p3325
aS''
asS'11333'
p3326
(lp3327
S'4618-18-2'
p3328
aS''
asS'8479'
p3329
(lp3330
S'121-57-3'
p3331
aS''
asS'7560'
p3332
(lp3333
S'101-42-8'
p3334
aS''
asS'8471'
p3335
(lp3336
S'121-44-8'
p3337
aS'121-44-8'
p3338
aS'121-44-8'
p3339
aS''
asS'8470'
p3340
(lp3341
S'121-43-7'
p3342
aS''
asS'8473'
p3343
(lp3344
S'121-46-0'
p3345
aS''
asS'11'
p3346
(lp3347
S'107-06-2'
p3348
aS'107-06-2'
p3349
aS'107-06-2'
p3350
aS'107-06-2'
p3351
aS''
asS'6403'
p3352
(lp3353
S'75-83-2'
p3354
aS''
asS'13'
p3355
(lp3356
S'120-82-1'
p3357
aS'120-82-1'
p3358
aS'120-82-1'
p3359
aS''
asS'6406'
p3360
(lp3361
S'75-86-5'
p3362
aS'75-86-5'
p3363
aS'75-86-5'
p3364
aS'75-86-5'
p3365
aS''
asS'5719'
p3366
(lp3367
S'151319-34-5'
p3368
aS''
asS'6405'
p3369
(lp3370
S'75-85-4'
p3371
aS''
asS'5717'
p3372
(lp3373
S'107753-78-6'
p3374
aS''
asS'8184'
p3375
(lp3376
S'112-42-5'
p3377
aS''
asS'8187'
p3378
(lp3379
S'112-45-8'
p3380
aS''
asS'6409'
p3381
(lp3382
S'75-89-8'
p3383
aS''
asS'8181'
p3384
(lp3385
S'112-39-0'
p3386
aS''
asS'8183'
p3387
(lp3388
S'112-41-4'
p3389
aS''
asS'8182'
p3390
(lp3391
S'112-40-3'
p3392
aS'112-40-3'
p3393
aS''
asS'7764'
p3394
(lp3395
S'105-56-6'
p3396
aS''
asS'7766'
p3397
(lp3398
S'105-58-8'
p3399
aS''
asS'7767'
p3400
(lp3401
S'105-59-9'
p3402
aS''
asS'7760'
p3403
(lp3404
S'105-52-2'
p3405
aS''
asS'7761'
p3406
(lp3407
S'105-53-3'
p3408
aS''
asS'7762'
p3409
(lp3410
S'105-54-4'
p3411
aS''
asS'7768'
p3412
(lp3413
S'105-60-2'
p3414
aS'105-60-2'
p3415
aS'105-60-2'
p3416
aS'105-60-2'
p3417
aS'105-60-2'
p3418
aS''
asS'7769'
p3419
(lp3420
S'105-64-6'
p3421
aS''
asS'6545'
p3422
(lp3423
S'78-63-7'
p3424
aS''
asS'3902'
p3425
(lp3426
S'112809-51-5'
p3427
aS''
asS'14769'
p3428
(lp3429
S'1302-74-5'
p3430
aS'1302-74-5(corundum)'
p3431
aS'1317-82-4'
p3432
aS'12415-34-8'
p3433
aS'1302-74-5'
p3434
aS''
asS'4761'
p3435
(lp3436
S'86-21-5'
p3437
aS''
asS'4760'
p3438
(lp3439
S'83-12-5'
p3440
aS''
asS'4763'
p3441
(lp3442
S'50-06-6'
p3443
aS''
asS'4765'
p3444
(lp3445
S'98-67-9'
p3446
aS''
asS'4160'
p3447
(lp3448
S'58-18-4'
p3449
aS''
asS'11246'
p3450
(lp3451
S'563-63-3'
p3452
aS''
asS'11241'
p3453
(lp3454
S'563-47-3'
p3455
aS''
asS'11240'
p3456
(lp3457
S'563-46-2'
p3458
aS'26760-64-5'
p3459
aS''
asS'5809'
p3460
(lp3461
S'51-34-3'
p3462
aS''
asS'9958'
p3463
(lp3464
S'452-86-8'
p3465
aS''
asS'5801'
p3466
(lp3467
S'95-55-6'
p3468
aS''
asS'200'
p3469
(lp3470
S'3031-94-5'
p3471
aS''
asS'206'
p3472
(lp3473
S'50-99-7'
p3474
aS''
asS'7648'
p3475
(lp3476
S'103-34-4'
p3477
aS''
asS'7244'
p3478
(lp3479
S'95-56-7'
p3480
aS''
asS'12047'
p3481
(lp3482
S'657-27-2'
p3483
aS''
asS'8368'
p3484
(lp3485
S'118-69-4'
p3486
aS''
asS'7243'
p3487
(lp3488
S'95-54-5'
p3489
aS'95-54-5'
p3490
aS''
asS'7242'
p3491
(lp3492
S'95-53-4'
p3493
aS'95-53-4'
p3494
aS'95-53-4'
p3495
aS''
asS'12682'
p3496
(lp3497
S'681-84-5'
p3498
aS'681-84-5'
p3499
aS''
asS'12683'
p3500
(lp3501
S'682-11-1'
p3502
aS''
asS'12688'
p3503
(lp3504
S'683-18-1'
p3505
aS''
asS'7240'
p3506
(lp3507
S'95-51-2'
p3508
aS''
asS'888'
p3509
(lp3510
S'7439-95-4'
p3511
aS''
asS'10826'
p3512
(lp3513
S'537-00-8'
p3514
aS''
asS'5936'
p3515
(lp3516
S'55-91-4'
p3517
aS''
asS'6935'
p3518
(lp3519
S'88-51-7'
p3520
aS''
asS'5959'
p3521
(lp3522
S'56-75-7'
p3523
aS'56-75-7'
p3524
aS''
asS'7814'
p3525
(lp3526
S'106-50-3'
p3527
aS'106-50-3'
p3528
aS'106-50-3'
p3529
aS''
asS'7812'
p3530
(lp3531
S'106-47-8'
p3532
aS''
asS'7813'
p3533
(lp3534
S'106-49-0'
p3535
aS'106-49-0'
p3536
aS'106-49-0'
p3537
aS''
asS'7810'
p3538
(lp3539
S'106-43-4'
p3540
aS''
asS'3496'
p3541
(lp3542
S'1071-83-6'
p3543
aS''
asS'8880'
p3544
(lp3545
S'142-26-7'
p3546
aS''
asS'3494'
p3547
(lp3548
S'596-51-0'
p3549
aS''
asS'7818'
p3550
(lp3551
S'106-58-1'
p3552
aS''
asS'7819'
p3553
(lp3554
S'106-63-8'
p3555
aS''
asS'13403'
p3556
(lp3557
S'874-41-9'
p3558
aS''
asS'3657'
p3559
(lp3560
S'127-07-1'
p3561
aS''
asS'225'
p3562
(lp3563
S'53-42-9'
p3564
aS''
asS'3652'
p3565
(lp3566
S'118-42-3'
p3567
aS''
asS'11666'
p3568
(lp3569
S'594-42-3'
p3570
aS'594-42-3'
p3571
aS''
asS'2520'
p3572
(lp3573
S'52-53-9'
p3574
aS''
asS'2522'
p3575
(lp3576
S'112965-21-6'
p3577
aS''
asS'7044'
p3578
(lp3579
S'91-17-8'
p3580
aS''
asS'4495'
p3581
(lp3582
S'51803-78-2'
p3583
aS''
asS'12971'
p3584
(lp3585
S'760-23-6'
p3586
aS''
asS'4494'
p3587
(lp3588
S'75530-68-6'
p3589
aS''
asS'11463'
p3590
(lp3591
S'586-62-9'
p3592
aS''
asS'4493'
p3593
(lp3594
S'63612-50-0'
p3595
aS''
asS'5064'
p3596
(lp3597
S'36791-04-5'
p3598
aS''
asS'2708'
p3599
(lp3600
S'305-03-3'
p3601
aS''
asS'7369'
p3602
(lp3603
S'98-09-9'
p3604
aS''
asS'2707'
p3605
(lp3606
S'302-17-0'
p3607
aS''
asS'4883'
p3608
(lp3609
S'6673-35-4'
p3610
aS''
asS'4887'
p3611
(lp3612
S'103177-37-3'
p3613
aS''
asS'7962'
p3614
(lp3615
S'108-87-2'
p3616
aS'108-87-2'
p3617
aS'108-87-2'
p3618
aS''
asS'7963'
p3619
(lp3620
S'108-89-4'
p3621
aS''
asS'7966'
p3622
(lp3623
S'108-93-0'
p3624
aS'108-93-0'
p3625
aS'108-93-0'
p3626
aS'108-93-0'
p3627
aS''
asS'7967'
p3628
(lp3629
S'108-94-1'
p3630
aS'108-94-1'
p3631
aS'108-94-1'
p3632
aS'108-94-1'
p3633
aS''
asS'7964'
p3634
(lp3635
S'108-90-7'
p3636
aS'108-90-7'
p3637
aS'108-90-7'
p3638
aS''
asS'7965'
p3639
(lp3640
S'108-91-8'
p3641
aS'108-91-8'
p3642
aS'108-91-8'
p3643
aS''
asS'7969'
p3644
(lp3645
S'108-98-5'
p3646
aS'108-98-5'
p3647
aS'108-98-5'
p3648
aS''
asS'10686'
p3649
(lp3650
S'526-73-8'
p3651
aS'25551-13-7'
p3652
aS'526-73-8'
p3653
aS'25551-13-7'
p3654
aS''
asS'10687'
p3655
(lp3656
S'526-75-0'
p3657
aS''
asS'9171'
p3658
(lp3659
S'218-01-9'
p3660
aS''
asS'9570'
p3661
(lp3662
S'342-69-8'
p3663
aS''
asS'4499'
p3664
(lp3665
S'63675-72-9'
p3666
aS''
asS'9279'
p3667
(lp3668
S'298-50-0'
p3669
aS''
asS'6253'
p3670
(lp3671
S'147-94-4'
p3672
aS''
asS'4976'
p3673
(lp3674
S'438-60-8'
p3675
aS''
asS'9578'
p3676
(lp3677
S'344-04-7'
p3678
aS''
asS'6256'
p3679
(lp3680
S'70-00-8'
p3681
aS''
asS'6255'
p3682
(lp3683
S'69-79-4'
p3684
aS'69-79-4'
p3685
aS''
asS'10757'
p3686
(lp3687
S'532-27-4'
p3688
aS'532-27-4'
p3689
aS''
asS'5391'
p3690
(lp3691
S'846-50-4'
p3692
aS''
asS'5396'
p3693
(lp3694
S'29767-20-2'
p3695
aS''
asS'3950'
p3696
(lp3697
S'13010-47-4'
p3698
aS''
asS'5394'
p3699
(lp3700
S'85622-93-1'
p3701
aS''
asS'14831'
p3702
(lp3703
S'1317-40-4'
p3704
aS''
asS'14830'
p3705
(lp3706
S'1317-39-1'
p3707
aS''
asS'14833'
p3708
(lp3709
S'1317-60-8'
p3710
aS''
asS'14832'
p3711
(lp3712
S'1317-42-6'
p3713
aS''
asS'14834'
p3714
(lp3715
S'1319-46-6'
p3716
aS''
asS'5748'
p3717
(lp3718
S'50-10-2'
p3719
aS''
asS'11301'
p3720
(lp3721
S'1852-53-5'
p3722
aS''
asS'14052'
p3723
(lp3724
S'74-55-5'
p3725
aS''
asS'14050'
p3726
(lp3727
S'12645-31-7'
p3728
aS'1070-03-7'
p3729
aS''
asS'11302'
p3730
(lp3731
S'521-18-6'
p3732
aS''
asS'3278'
p3733
(lp3734
S'58-54-8'
p3735
aS''
asS'3475'
p3736
(lp3737
S'21187-98-4'
p3738
aS''
asS'3476'
p3739
(lp3740
S'93479-97-1'
p3741
aS''
asS'14231'
p3742
(lp3743
S'1117-86-8'
p3744
aS''
asS'835'
p3745
(lp3746
S'490-83-5'
p3747
aS''
asS'7360'
p3748
(lp3749
S'97-99-4'
p3750
aS''
asS'7361'
p3751
(lp3752
S'98-00-0'
p3753
aS'98-00-0'
p3754
aS'98-00-0'
p3755
aS''
asS'7362'
p3756
(lp3757
S'98-01-1'
p3758
aS'98-01-1'
p3759
aS'98-01-1'
p3760
aS''
asS'3478'
p3761
(lp3762
S'29094-61-9'
p3763
aS''
asS'8881'
p3764
(lp3765
S'142-28-9'
p3766
aS''
asS'7367'
p3767
(lp3768
S'98-07-7'
p3769
aS''
asS'13229'
p3770
(lp3771
S'827-52-1'
p3772
aS''
asS'13223'
p3773
(lp3774
S'826-62-0'
p3775
aS''
asS'14237'
p3776
(lp3777
S'95823-36-2'
p3778
aS''
asS'14236'
p3779
(lp3780
S'1118-46-3'
p3781
aS''
asS'14235'
p3782
(lp3783
S'1118-39-4'
p3784
aS''
asS'14941'
p3785
(lp3786
S'1344-95-2'
p3787
aS'1344-95-2'
p3788
aS'1344-95-2'
p3789
aS''
asS'6479'
p3790
(lp3791
S'77-48-5'
p3792
aS''
asS'14238'
p3793
(lp3794
S'1118-58-7'
p3795
aS''
asS'9006'
p3796
(lp3797
S'149-74-6'
p3798
aS''
asS'9005'
p3799
(lp3800
S'149-73-5'
p3801
aS''
asS'7455'
p3802
(lp3803
S'99-75-2'
p3804
aS''
asS'7027'
p3805
(lp3806
S'90-80-2'
p3807
aS'90-80-2'
p3808
aS''
asS'9002'
p3809
(lp3810
S'149-45-1'
p3811
aS''
asS'9001'
p3812
(lp3813
S'149-45-1'
p3814
aS''
asS'5487'
p3815
(lp3816
S'51322-75-9'
p3817
aS''
asS'3310'
p3818
(lp3819
S'33419-42-0'
p3820
aS''
asS'7029'
p3821
(lp3822
S'90-84-6'
p3823
aS''
asS'3312'
p3824
(lp3825
S'54350-48-0'
p3826
aS''
asS'8094'
p3827
(lp3828
S'111-14-8'
p3829
aS''
asS'3314'
p3830
(lp3831
S'97-53-0'
p3832
aS''
asS'9009'
p3833
(lp3834
S'150-46-9'
p3835
aS''
asS'6577'
p3836
(lp3837
S'79-04-9'
p3838
aS'79-04-9'
p3839
aS'79-04-9'
p3840
aS''
asS'784'
p3841
(lp3842
S'7722-84-1'
p3843
aS'7722-84-1'
p3844
aS'7722-84-1'
p3845
aS''
asS'785'
p3846
(lp3847
S'123-31-9'
p3848
aS'123-31-9'
p3849
aS'123-31-9'
p3850
aS''
asS'787'
p3851
(lp3852
S'7803-49-8'
p3853
aS''
asS'3331'
p3854
(lp3855
S'25451-15-4'
p3856
aS''
asS'7450'
p3857
(lp3858
S'99-62-7'
p3859
aS''
asS'783'
p3860
(lp3861
S'1333-74-0'
p3862
aS'1333-74-0'
p3863
aS''
asS'5245'
p3864
(lp3865
S'105462-24-6'
p3866
aS''
asS'1727'
p3867
(lp3868
S'504-24-5'
p3869
aS''
asS'7451'
p3870
(lp3871
S'99-63-8'
p3872
aS''
asS'13134'
p3873
(lp3874
S'813-78-5'
p3875
aS''
asS'13130'
p3876
(lp3877
S'812-00-0'
p3878
aS''
asS'10541'
p3879
(lp3880
S'512-56-1'
p3881
aS''
asS'673'
p3882
(lp3883
S'1118-68-9'
p3884
aS''
asS'6471'
p3885
(lp3886
S'468-59-7'
p3887
aS''
asS'7076'
p3888
(lp3889
S'92-06-8'
p3890
aS''
asS'7390'
p3891
(lp3892
S'98-51-1'
p3893
aS'98-51-1'
p3894
aS''
asS'2662'
p3895
(lp3896
S'169590-42-5'
p3897
aS''
asS'5320'
p3898
(lp3899
S'144-80-9'
p3900
aS''
asS'10542'
p3901
(lp3902
S'512-69-6'
p3903
aS''
asS'7933'
p3904
(lp3905
S'108-43-0'
p3906
aS''
asS'7592'
p3907
(lp3908
S'102-01-2'
p3909
aS''
asS'7798'
p3910
(lp3911
S'106-31-0'
p3912
aS''
asS'7791'
p3913
(lp3914
S'106-20-7'
p3915
aS''
asS'7790'
p3916
(lp3917
S'106-19-4'
p3918
aS''
asS'7792'
p3919
(lp3920
S'106-21-8'
p3921
aS''
asS'7797'
p3922
(lp3923
S'106-30-9'
p3924
aS''
asS'10911'
p3925
(lp3926
S'540-97-6'
p3927
aS''
asS'7028'
p3928
(lp3929
S'90-82-4'
p3930
aS''
asS'7156'
p3931
(lp3932
S'93-70-9'
p3933
aS''
asS'7155'
p3934
(lp3935
S'93-69-6'
p3936
aS''
asS'7154'
p3937
(lp3938
S'93-68-5'
p3939
aS''
asS'7152'
p3940
(lp3941
S'135-37-5'
p3942
aS''
asS'5482'
p3943
(lp3944
S'65899-73-2'
p3945
aS''
asS'7697'
p3946
(lp3947
S'104-29-0'
p3948
aS''
asS'5328'
p3949
(lp3950
S'144-82-1'
p3951
aS''
asS'1032'
p3952
(lp3953
S'79-09-4'
p3954
aS'79-09-4'
p3955
aS'79-09-4'
p3956
aS'79-09-4'
p3957
aS''
asS'8497'
p3958
(lp3959
S'121-92-6'
p3960
aS''
asS'1030'
p3961
(lp3962
S'57-55-6'
p3963
aS'57-55-6'
p3964
aS''
asS'9008'
p3965
(lp3966
S'150-38-9'
p3967
aS''
asS'8496'
p3968
(lp3969
S'121-91-5'
p3970
aS''
asS'12860'
p3971
(lp3972
S'717-74-8'
p3973
aS'27322-34-5'
p3974
aS''
asS'5950'
p3975
(lp3976
S'56-41-7'
p3977
aS'338-69-2'
p3978
aS''
asS'637'
p3979
(lp3980
S'951-77-9'
p3981
aS''
asS'8066'
p3982
(lp3983
S'110-65-6'
p3984
aS''
asS'8067'
p3985
(lp3986
S'110-66-7'
p3987
aS'110-66-7'
p3988
aS''
asS'8064'
p3989
(lp3990
S'110-63-4'
p3991
aS'110-63-4'
p3992
aS''
asS'8065'
p3993
(lp3994
S'110-64-5'
p3995
aS''
asS'8062'
p3996
(lp3997
S'110-61-2'
p3998
aS'110-61-2'
p3999
aS''
asS'8063'
p4000
(lp4001
S'110-62-3'
p4002
aS'110-62-3'
p4003
aS'110-62-3'
p4004
aS'110-62-3'
p4005
aS''
asS'8060'
p4006
(lp4007
S'110-58-7'
p4008
aS'110-58-7'
p4009
aS''
asS'7485'
p4010
(lp4011
S'100-17-4'
p4012
aS''
asS'7486'
p4013
(lp4014
S'100-18-5'
p4015
aS''
asS'6525'
p4016
(lp4017
S'78-27-3'
p4018
aS''
asS'6527'
p4019
(lp4020
S'78-30-8'
p4021
aS'78-30-8'
p4022
aS''
asS'5656'
p4023
(lp4024
S'93413-69-5'
p4025
aS''
asS'6528'
p4026
(lp4027
S'26444-49-5'
p4028
aS''
asS'8582'
p4029
(lp4030
S'131-99-7'
p4031
aS''
asS'8260'
p4032
(lp4033
S'115-21-9'
p4034
aS''
asS'7488'
p4035
(lp4036
S'100-20-9'
p4037
aS''
asS'8263'
p4038
(lp4039
S'115-25-3'
p4040
aS''
asS'2895'
p4041
(lp4042
S'303-53-7'
p4043
aS''
asS'2893'
p4044
(lp4045
S'456-59-7'
p4046
aS''
asS'8005'
p4047
(lp4048
S'109-69-3'
p4049
aS''
asS'8663'
p4050
(lp4051
S'135-19-3'
p4052
aS''
asS'1102'
p4053
(lp4054
S'124-20-9'
p4055
aS''
asS'1103'
p4056
(lp4057
S'71-44-3'
p4058
aS'68956-56-9'
p4059
aS''
asS'1100'
p4060
(lp4061
S'7782-99-2'
p4062
aS''
asS'8667'
p4063
(lp4064
S'91-80-5'
p4065
aS''
asS'10188'
p4066
(lp4067
S'480-30-8'
p4068
aS''
asS'5946'
p4069
(lp4070
S'56-34-8'
p4071
aS''
asS'3869'
p4072
(lp4073
S'36894-69-6'
p4074
aS''
asS'13792'
p4075
(lp4076
S'979-92-0'
p4077
aS''
asS'4086'
p4078
(lp4079
S'586-06-1'
p4080
aS''
asS'4454'
p4081
(lp4082
S'1404-04-2'
p4083
aS''
asS'7073'
p4084
(lp4085
S'91-99-6'
p4086
aS''
asS'8400'
p4087
(lp4088
S'119-53-9'
p4089
aS''
asS'8404'
p4090
(lp4091
S'119-64-2'
p4092
aS''
asS'8405'
p4093
(lp4094
S'119-65-3'
p4095
aS'119-65-3'
p4096
aS''
asS'7570'
p4097
(lp4098
S'101-68-8'
p4099
aS'26447-40-5'
p4100
aS'9016-87-9'
p4101
aS'101-68-8'
p4102
aS'101-68-8'
p4103
aS''
asS'7573'
p4104
(lp4105
S'101-72-4'
p4106
aS''
asS'4458'
p4107
(lp4108
S'106-25-2'
p4109
aS''
asS'6419'
p4110
(lp4111
S'76-01-7'
p4112
aS'76-01-7'
p4113
aS'76-01-7'
p4114
aS''
asS'6418'
p4115
(lp4116
S'75-99-0'
p4117
aS'75-99-0'
p4118
aS''
asS'7577'
p4119
(lp4120
S'101-77-9'
p4121
aS'101-77-9'
p4122
aS'101-77-9'
p4123
aS''
asS'4909'
p4124
(lp4125
S'125-33-7'
p4126
aS''
asS'7579'
p4127
(lp4128
S'101-80-4'
p4129
aS''
asS'6417'
p4130
(lp4131
S'75-98-9'
p4132
aS''
asS'5721'
p4133
(lp4134
S'139110-80-8'
p4135
aS''
asS'5726'
p4136
(lp4137
S'30516-87-1'
p4138
aS''
asS'6410'
p4139
(lp4140
S'75-91-2'
p4141
aS''
asS'6413'
p4142
(lp4143
S'75-94-5'
p4144
aS''
asS'7777'
p4145
(lp4146
S'105-83-9'
p4147
aS''
asS'7774'
p4148
(lp4149
S'105-76-0'
p4150
aS''
asS'7773'
p4151
(lp4152
S'105-74-8'
p4153
aS''
asS'7771'
p4154
(lp4155
S'105-67-9'
p4156
aS''
asS'7837'
p4157
(lp4158
S'106-91-2'
p4159
aS''
asS'3917'
p4160
(lp4161
S'829-74-3'
p4162
aS''
asS'3916'
p4163
(lp4164
S'60-99-1'
p4165
aS''
asS'14284'
p4166
(lp4167
S'1122-58-3'
p4168
aS''
asS'3911'
p4169
(lp4170
S'53714-56-0'
p4171
aS''
asS'6340'
p4172
(lp4173
S'75-03-6'
p4174
aS''
asS'11029'
p4175
(lp4176
S'546-93-0'
p4177
aS'546-93-0'
p4178
aS'13717-00-5'
p4179
aS'546-93-0'
p4180
aS''
asS'6732'
p4181
(lp4182
S'83-26-1'
p4183
aS'83-26-1'
p4184
aS''
asS'2470'
p4185
(lp4186
S'92953-54-3'
p4187
aS''
asS'10137'
p4188
(lp4189
S'475-20-7'
p4190
aS''
asS'4794'
p4191
(lp4192
S'51276-47-2'
p4193
aS''
asS'6739'
p4194
(lp4195
S'83-41-0'
p4196
aS''
asS'4797'
p4197
(lp4198
S'51528-59-7'
p4199
aS''
asS'4790'
p4200
(lp4201
S'298-02-2'
p4202
aS'298-02-2'
p4203
aS''
asS'4926'
p4204
(lp4205
S'58-40-2'
p4206
aS''
asS'5836'
p4207
(lp4208
S'76-57-3'
p4209
aS''
asS'8086'
p4210
(lp4211
S'110-97-4'
p4212
aS''
asS'8087'
p4213
(lp4214
S'110-98-5'
p4215
aS''
asS'8081'
p4216
(lp4217
S'110-88-3'
p4218
aS''
asS'8082'
p4219
(lp4220
S'110-89-4'
p4221
aS''
asS'4158'
p4222
(lp4223
S'113-45-1'
p4224
aS''
asS'4033'
p4225
(lp4226
S'51-75-2'
p4227
aS''
asS'11251'
p4228
(lp4229
S'563-80-4'
p4230
aS'563-80-4'
p4231
aS'563-80-4'
p4232
aS''
asS'9923'
p4233
(lp4234
S'440-60-8'
p4235
aS''
asS'4037'
p4236
(lp4237
S'644-62-2'
p4238
aS''
asS'5407'
p4239
(lp4240
S'968-93-4'
p4241
aS''
asS'218'
p4242
(lp4243
S'3672-03-5'
p4244
aS''
asS'5943'
p4245
(lp4246
S'56-23-5'
p4247
aS'56-23-5'
p4248
aS'56-23-5'
p4249
aS''
asS'6089'
p4250
(lp4251
S'61-50-7'
p4252
aS''
asS'6087'
p4253
(lp4254
S'61-32-5'
p4255
aS''
asS'12075'
p4256
(lp4257
S'619-15-8'
p4258
aS''
asS'6082'
p4259
(lp4260
S'390-28-3'
p4261
aS''
asS'6083'
p4262
(lp4263
S'61-19-8'
p4264
aS''
asS'11649'
p4265
(lp4266
S'593-81-7'
p4267
aS''
asS'4167'
p4268
(lp4269
S'4969-02-2'
p4270
aS''
asS'12679'
p4271
(lp4272
S'680-31-9'
p4273
aS'680-31-9'
p4274
aS''
asS'6649'
p4275
(lp4276
S'80-51-3'
p4277
aS'80-51-3'
p4278
aS''
asS'980'
p4279
(lp4280
S'100-02-7'
p4281
aS''
asS'11727'
p4282
(lp4283
S'598-63-0'
p4284
aS''
asS'6646'
p4285
(lp4286
S'80-49-9'
p4287
aS''
asS'6647'
p4288
(lp4289
S'80-50-2'
p4290
aS''
asS'6641'
p4291
(lp4292
S'80-43-3'
p4293
aS''
asS'6643'
p4294
(lp4295
S'80-46-6'
p4296
aS''
asS'5906'
p4297
(lp4298
S'54-49-9'
p4299
aS''
asS'4'
(lp4300
S'78-96-6'
p4301
aS'78-96-6'
p4302
aS''
asS'5904'
p4303
(lp4304
S'61-33-6'
p4305
aS''
asS'5905'
p4306
(lp4307
S'54-42-2'
p4308
aS''
asS'6124'
p4309
(lp4310
S'62-75-9'
p4311
aS'62-75-9'
p4312
aS''
asS'5909'
p4313
(lp4314
S'54-71-7'
p4315
aS''
asS'6497'
p4316
(lp4317
S'77-78-1'
p4318
aS'77-78-1'
p4319
aS'77-78-1'
p4320
aS''
asS'3488'
p4321
(lp4322
S'10238-21-8'
p4323
aS''
asS'7803'
p4324
(lp4325
S'106-36-5'
p4326
aS''
asS'7802'
p4327
(lp4328
S'106-35-4'
p4329
aS'106-35-4'
p4330
aS''
asS'7809'
p4331
(lp4332
S'106-42-3'
p4333
aS'68650-36-2'
p4334
aS'106-42-3'
p4335
aS'106-42-3'
p4336
aS''
asS'8177'
p4337
(lp4338
S'112-34-5'
p4339
aS''
asS'3485'
p4340
(lp4341
S'111-30-8'
p4342
aS'111-30-8'
p4343
aS'111-30-8'
p4344
aS''
asS'3487'
p4345
(lp4346
S'77-21-4'
p4347
aS''
asS'3647'
p4348
(lp4349
S'135-09-1'
p4350
aS''
asS'4568'
p4351
(lp4352
S'1400-61-9'
p4353
aS''
asS'3640'
p4354
(lp4355
S'50-23-7'
p4356
aS''
asS'6398'
p4357
(lp4358
S'75-78-5'
p4359
aS''
asS'6399'
p4360
(lp4361
S'75-79-6'
p4362
aS''
asS'2554'
p4363
(lp4364
S'298-46-4'
p4365
aS''
asS'6393'
p4366
(lp4367
S'75-73-0'
p4368
aS''
asS'6391'
p4369
(lp4370
S'75-71-8'
p4371
aS'75-71-8'
p4372
aS''
asS'6396'
p4373
(lp4374
S'75-76-3'
p4375
aS''
asS'3007'
p4376
(lp4377
S'300-62-9'
p4378
aS''
asS'6394'
p4379
(lp4380
S'75-74-1'
p4381
aS'75-74-1'
p4382
aS''
asS'6395'
p4383
(lp4384
S'75-75-2'
p4385
aS''
asS'2391'
p4386
(lp4387
S'603-50-9'
p4388
aS''
asS'6491'
p4389
(lp4390
S'77-71-4'
p4391
aS''
asS'10178'
p4392
(lp4393
S'479-45-8'
p4394
aS'479-45-8'
p4395
aS''
asS'3168'
p4396
(lp4397
S'548-73-2'
p4398
aS''
asS'10326'
p4399
(lp4400
S'496-11-7'
p4401
aS''
asS'4893'
p4402
(lp4403
S'19216-56-9'
p4404
aS''
asS'2771'
p4405
(lp4406
S'59729-33-8'
p4407
aS''
asS'4891'
p4408
(lp4409
S'55268-74-1'
p4410
aS''
asS'3002'
p4411
(lp4412
S'5863-40-1'
p4413
aS''
asS'4894'
p4414
(lp4415
S'50-24-8'
p4416
aS''
asS'11565'
p4417
(lp4418
S'591-22-0'
p4419
aS''
asS'5333'
p4420
(lp4421
S'63-74-1'
p4422
aS''
asS'7979'
p4423
(lp4424
S'109-16-0'
p4425
aS''
asS'7975'
p4426
(lp4427
S'109-06-8'
p4428
aS''
asS'7977'
p4429
(lp4430
S'109-09-1'
p4431
aS''
asS'7970'
p4432
(lp4433
S'108-99-6'
p4434
aS'108-99-6'
p4435
aS''
asS'7972'
p4436
(lp4437
S'109-02-4'
p4438
aS''
asS'6267'
p4439
(lp4440
S'70-47-3'
p4441
aS''
asS'6262'
p4442
(lp4443
S'70-26-8'
p4444
aS''
asS'12443'
p4445
(lp4446
S'632-79-1'
p4447
aS''
asS'12251'
p4448
(lp4449
S'625-45-6'
p4450
aS''
asS'9354'
p4451
(lp4452
S'304-55-2'
p4453
aS''
asS'6269'
p4454
(lp4455
S'70-55-3'
p4456
aS''
asS'6061'
p4457
(lp4458
S'60-34-4'
p4459
aS'60-34-4'
p4460
aS''
asS'4078'
p4461
(lp4462
S'5588-33-0'
p4463
aS''
asS'2805'
p4464
(lp4465
S'3703-76-2'
p4466
aS''
asS'2642'
p4467
(lp4468
S'70797-11-4'
p4469
aS''
asS'10964'
p4470
(lp4471
S'542-78-9'
p4472
aS''
asS'14823'
p4473
(lp4474
S'1317-33-5'
p4475
aS''
asS'14821'
p4476
(lp4477
S'1314-98-3'
p4478
aS''
asS'14827'
p4479
(lp4480
S'1317-36-8'
p4481
aS''
asS'14824'
p4482
(lp4483
S'1317-34-6'
p4484
aS''
asS'14825'
p4485
(lp4486
S'1317-35-7'
p4487
aS'1317-35-7'
p4488
aS''
asS'3261'
p4489
(lp4490
S'29975-16-4'
p4491
aS''
asS'1930'
p4492
(lp4493
S'301-02-0'
p4494
aS''
asS'10038'
p4495
(lp4496
S'463-51-4'
p4497
aS'463-51-4'
p4498
aS''
asS'1935'
p4499
(lp4500
S'321-64-2'
p4501
aS''
asS'5125'
p4502
(lp4503
S'78-48-8'
p4504
aS''
asS'10037'
p4505
(lp4506
S'463-49-0'
p4507
aS''
asS'10788'
p4508
(lp4509
S'533-74-4'
p4510
aS''
asS'847'
p4511
(lp4512
S'62697-73-8'
p4513
aS''
asS'3464'
p4514
(lp4515
S'77482-44-1'
p4516
aS''
asS'3463'
p4517
(lp4518
S'25812-30-0'
p4519
aS''
asS'842'
p4520
(lp4521
S'686-58-8'
p4522
aS''
asS'8899'
p4523
(lp4524
S'142-78-9'
p4525
aS''
asS'8898'
p4526
(lp4527
S'142-77-8'
p4528
aS''
asS'8897'
p4529
(lp4530
S'142-73-4'
p4531
aS''
asS'8896'
p4532
(lp4533
S'142-72-3'
p4534
aS''
asS'7371'
p4535
(lp4536
S'98-11-3'
p4537
aS''
asS'8894'
p4538
(lp4539
S'142-68-7'
p4540
aS''
asS'8893'
p4541
(lp4542
S'142-64-3'
p4543
aS'142-64-3'
p4544
aS''
asS'7376'
p4545
(lp4546
S'98-17-9'
p4547
aS''
asS'7375'
p4548
(lp4549
S'98-16-8'
p4550
aS''
asS'3468'
p4551
(lp4552
S'14426-25-6'
p4553
aS''
asS'7947'
p4554
(lp4555
S'108-67-8'
p4556
aS'108-67-8'
p4557
aS''
asS'3365'
p4558
(lp4559
S'86386-73-4'
p4560
aS''
asS'7232'
p4561
(lp4562
S'95-33-0'
p4563
aS''
asS'12328'
p4564
(lp4565
S'627-91-8'
p4566
aS''
asS'7231'
p4567
(lp4568
S'95-32-9'
p4569
aS''
asS'9032'
p4570
(lp4571
S'151-50-8'
p4572
aS'151-50-8'
p4573
aS'151-50-8'
p4574
aS''
asS'9033'
p4575
(lp4576
S'68130-98-3'
p4577
aS'151-56-4'
p4578
aS'151-56-4'
p4579
aS''
asS'3151'
p4580
(lp4581
S'57808-66-9'
p4582
aS''
asS'9034'
p4583
(lp4584
S'151-83-7'
p4585
aS''
asS'7014'
p4586
(lp4587
S'90-39-1'
p4588
aS''
asS'7150'
p4589
(lp4590
S'93-58-3'
p4591
aS''
asS'7013'
p4592
(lp4593
S'90-30-2'
p4594
aS''
asS'10257'
p4595
(lp4596
S'487-93-4'
p4597
aS''
asS'3460'
p4598
(lp4599
S'30562-34-6'
p4600
aS''
asS'4688'
p4601
(lp4602
S'555-57-7'
p4603
aS''
asS'6839'
p4604
(lp4605
S'86-34-0'
p4606
aS''
asS'11443'
p4607
(lp4608
S'584-84-9'
p4609
aS'584-84-9'
p4610
aS'584-84-9'
p4611
aS''
asS'5234'
p4612
(lp4613
S'7647-14-5'
p4614
aS''
asS'5235'
p4615
(lp4616
S'7681-49-4'
p4617
aS'7681-49-4'
p4618
aS''
asS'13126'
p4619
(lp4620
S'808-48-0'
p4621
aS''
asS'11487'
p4622
(lp4623
S'122-39-4'
p4624
aS'122-39-4'
p4625
aS'122-39-4'
p4626
aS''
asS'11813'
p4627
(lp4628
S'606-20-2'
p4629
aS'606-20-2'
p4630
aS''
asS'13129'
p4631
(lp4632
S'811-97-2'
p4633
aS''
asS'753'
p4634
(lp4635
S'25618-55-7'
p4636
aS'56-81-5'
p4637
aS'56-81-5'
p4638
aS'56-81-5'
p4639
aS''
asS'751'
p4640
(lp4641
S'367-47-5'
p4642
aS''
asS'750'
p4643
(lp4644
S'56-40-6'
p4645
aS'56-40-6'
p4646
aS''
asS'757'
p4647
(lp4648
S'79-14-1'
p4649
aS'79-14-1'
p4650
aS''
asS'6838'
p4651
(lp4652
S'86-30-6'
p4653
aS''
asS'4748'
p4654
(lp4655
S'58-39-9'
p4656
aS''
asS'3070'
p4657
(lp4658
S'67-96-9'
p4659
aS''
asS'6319'
p4660
(lp4661
S'74-31-7'
p4662
aS''
asS'6883'
p4663
(lp4664
S'87-33-2'
p4665
aS''
asS'2955'
p4666
(lp4667
S'80-08-0'
p4668
aS'80-08-0'
p4669
aS''
asS'5344'
p4670
(lp4671
S'127-69-5'
p4672
aS''
asS'1024'
p4673
(lp4674
S'72909-34-3'
p4675
aS''
asS'7168'
p4676
(lp4677
S'68608-79-7'
p4678
aS''
asS'1031'
p4679
(lp4680
S'71-23-8'
p4681
aS'71-23-8'
p4682
aS'71-23-8'
p4683
aS'71-23-8'
p4684
aS''
asS'5340'
p4685
(lp4686
S'72-14-0'
p4687
aS''
asS'5342'
p4688
(lp4689
S'57-96-5'
p4690
aS''
asS'4906'
p4691
(lp4692
S'721-50-6'
p4693
aS''
asS'2585'
p4694
(lp4695
S'72956-09-3'
p4696
aS''
asS'7164'
p4697
(lp4698
S'93-83-4'
p4699
aS''
asS'7165'
p4700
(lp4701
S'93-89-0'
p4702
aS''
asS'12711'
p4703
(lp4704
S'688-71-1'
p4705
aS''
asS'936'
p4706
(lp4707
S'98-92-0'
p4708
aS'98-92-0'
p4709
aS''
asS'8079'
p4710
(lp4711
S'110-83-8'
p4712
aS'110-83-8'
p4713
aS''
asS'604'
p4714
(lp4715
S'526-95-4'
p4716
aS''
asS'607'
p4717
(lp4718
S'87-73-0'
p4719
aS''
asS'4362'
p4720
(lp4721
S'128-53-0'
p4722
aS''
asS'8071'
p4723
(lp4724
S'110-71-4'
p4725
aS'110-71-4'
p4726
aS''
asS'12894'
p4727
(lp4728
S'729-99-7'
p4729
aS''
asS'12896'
p4730
(lp4731
S'730-40-5'
p4732
aS''
asS'1201'
p4733
(lp4734
S'142632-32-4'
p4735
aS''
asS'8076'
p4736
(lp4737
S'110-80-5'
p4738
aS'110-80-5'
p4739
aS'110-80-5'
p4740
aS'110-80-5'
p4741
aS''
asS'8106'
p4742
(lp4743
S'111-31-9'
p4744
aS'111-31-9'
p4745
aS'111-31-9'
p4746
aS''
asS'5641'
p4747
(lp4748
S'51-79-6'
p4749
aS'51-79-6'
p4750
aS''
asS'8275'
p4751
(lp4752
S'115-44-6'
p4753
aS''
asS'5645'
p4754
(lp4755
S'128-13-2'
p4756
aS''
asS'8271'
p4757
(lp4758
S'115-38-8'
p4759
aS''
asS'3108'
p4760
(lp4761
S'58-32-2'
p4762
aS''
asS'8103'
p4763
(lp4764
S'111-27-3'
p4765
aS''
asS'3678'
p4766
(lp4767
S'150-59-4'
p4768
aS''
asS'3105'
p4769
(lp4770
S'52365-63-6'
p4771
aS''
asS'3100'
p4772
(lp4773
S'58-73-1'
p4774
aS''
asS'3103'
p4775
(lp4776
S'147-20-6'
p4777
aS''
asS'1110'
p4778
(lp4779
S'110-15-6'
p4780
aS'110-15-6'
p4781
aS''
asS'8670'
p4782
(lp4783
S'135-37-5'
p4784
aS''
asS'1115'
p4785
(lp4786
S'57-50-1'
p4787
aS'57-50-1'
p4788
aS'57-50-1'
p4789
aS'57-50-1'
p4790
aS''
asS'5880'
p4791
(lp4792
S'53-42-9'
p4793
aS''
asS'8902'
p4794
(lp4795
S'142-84-7'
p4796
aS''
asS'1119'
p4797
(lp4798
S'7446-09-5'
p4799
aS'7446-09-5'
p4800
aS'7446-09-5'
p4801
aS''
asS'1118'
p4802
(lp4803
S'7664-93-9'
p4804
aS'7664-93-9'
p4805
aS'7664-93-9'
p4806
aS''
asS'8679'
p4807
(lp4808
S'135-88-6'
p4809
aS'135-88-6'
p4810
aS''
asS'4993'
p4811
(lp4812
S'58-14-0'
p4813
aS''
asS'4093'
p4814
(lp4815
S'79-41-4'
p4816
aS'79-41-4'
p4817
aS'79-41-4'
p4818
aS''
asS'4091'
p4819
(lp4820
S'657-24-9'
p4821
aS''
asS'4097'
p4822
(lp4823
S'5818-17-7'
p4824
aS''
asS'6332'
p4825
(lp4826
S'74-96-4'
p4827
aS'74-96-4'
p4828
aS'74-96-4'
p4829
aS''
asS'4095'
p4830
(lp4831
S'76-99-3'
p4832
aS''
asS'4099'
p4833
(lp4834
S'50-11-3'
p4835
aS''
asS'4098'
p4836
(lp4837
S'91-80-5'
p4838
aS''
asS'6668'
p4839
(lp4840
S'81-11-8'
p4841
aS''
asS'460'
p4842
(lp4843
S'90-05-1'
p4844
aS''
asS'5735'
p4845
(lp4846
S'43200-80-2'
p4847
aS''
asS'5734'
p4848
(lp4849
S'68291-97-4'
p4850
aS''
asS'10548'
p4851
(lp4852
S'6736-03-4'
p4853
aS''
asS'6047'
p4854
(lp4855
S'59-92-7'
p4856
aS''
asS'5733'
p4857
(lp4858
S'33369-31-2'
p4859
aS''
asS'5732'
p4860
(lp4861
S'82626-48-0'
p4862
aS''
asS'487'
p4863
(lp4864
S'516-05-2'
p4865
aS''
asS'8411'
p4866
(lp4867
S'119-90-4'
p4868
aS'119-90-4'
p4869
aS''
asS'6492'
p4870
(lp4871
S'77-73-6'
p4872
aS'77-73-6'
p4873
aS'77-73-6'
p4874
aS''
asS'8416'
p4875
(lp4876
S'120-07-0'
p4877
aS''
asS'8414'
p4878
(lp4879
S'119-96-0'
p4880
aS''
asS'6468'
p4881
(lp4882
S'77-10-1'
p4883
aS''
asS'6469'
p4884
(lp4885
S'77-15-6'
p4886
aS''
asS'8635'
p4887
(lp4888
S'134-20-3'
p4889
aS''
asS'9809'
p4890
(lp4891
S'393-75-9'
p4892
aS''
asS'9868'
p4893
(lp4894
S'420-46-2'
p4895
aS''
asS'7585'
p4896
(lp4897
S'101-86-0'
p4898
aS''
asS'7586'
p4899
(lp4900
S'101-90-6'
p4901
aS''
asS'4043'
p4902
(lp4903
S'2668-66-8'
p4904
aS''
asS'6464'
p4905
(lp4906
S'77-02-1'
p4907
aS''
asS'9801'
p4908
(lp4909
S'390-64-7'
p4910
aS''
asS'6230'
p4911
(lp4912
S'68-22-4'
p4913
aS''
asS'7741'
p4914
(lp4915
S'105-20-4'
p4916
aS''
asS'7747'
p4917
(lp4918
S'105-34-0'
p4919
aS''
asS'7748'
p4920
(lp4921
S'105-36-2'
p4922
aS''
asS'7749'
p4923
(lp4924
S'105-37-3'
p4925
aS''
asS'11237'
p4926
(lp4927
S'563-43-9'
p4928
aS''
asS'6666'
p4929
(lp4930
S'1655-29-4'
p4931
aS''
asS'4042'
p4932
(lp4933
S'71-58-9'
p4934
aS''
asS'8306'
p4935
(lp4936
S'116-37-0'
p4937
aS''
asS'6721'
p4938
(lp4939
S'82-71-3'
p4940
aS''
asS'8304'
p4941
(lp4942
S'116-17-6'
p4943
aS''
asS'8303'
p4944
(lp4945
S'116-16-5'
p4946
aS''
asS'6726'
p4947
(lp4948
S'82-92-8'
p4949
aS''
asS'8301'
p4950
(lp4951
S'116-14-3'
p4952
aS'116-14-3'
p4953
aS''
asS'8265'
p4954
(lp4955
S'115-27-5'
p4956
aS''
asS'4786'
p4957
(lp4958
S'492-39-7'
p4959
aS''
asS'6729'
p4960
(lp4961
S'82-95-1'
p4962
aS''
asS'4781'
p4963
(lp4964
S'50-33-9'
p4965
aS''
asS'12525'
p4966
(lp4967
S'638-38-0'
p4968
aS''
asS'8096'
p4969
(lp4970
S'111-17-1'
p4971
aS''
asS'8095'
p4972
(lp4973
S'111-15-9'
p4974
aS'111-15-9'
p4975
aS'111-15-9'
p4976
aS''
asS'6481'
p4977
(lp4978
S'77-51-0'
p4979
aS''
asS'8091'
p4980
(lp4981
S'111-11-5'
p4982
aS'67762-39-4'
p4983
aS''
asS'5826'
p4984
(lp4985
S'51-64-9'
p4986
aS''
asS'7489'
p4987
(lp4988
S'100-21-0'
p4989
aS'100-21-0'
p4990
aS''
asS'11579'
p4991
(lp4992
S'123-76-2'
p4993
aS'123-76-2'
p4994
aS''
asS'4475'
p4995
(lp4996
S'27848-84-6'
p4997
aS''
asS'5558'
p4998
(lp4999
S'75-25-2'
p5000
aS'75-25-2'
p5001
aS''
asS'9934'
p5002
(lp5003
S'2756-91-4'
p5004
aS''
asS'11146'
p5005
(lp5006
S'555-43-1'
p5007
aS''
asS'6098'
p5008
(lp5009
S'61-72-3'
p5010
aS''
asS'5961'
p5011
(lp5012
S'56-85-9'
p5013
aS'5959-95-5'
p5014
aS'56-85-9'
p5015
aS''
asS'9305'
p5016
(lp5017
S'300-39-0'
p5018
aS''
asS'6090'
p5019
(lp5020
S'61-51-8'
p5021
aS''
asS'12067'
p5022
(lp5023
S'618-85-9'
p5024
aS''
asS'1567'
p5025
(lp5026
S'60-24-2'
p5027
aS'60-24-2'
p5028
aS''
asS'12668'
p5029
(lp5030
S'4904-61-4'
p5031
aS''
asS'6658'
p5032
(lp5033
S'80-62-6'
p5034
aS'80-62-6'
p5035
aS'80-62-6'
p5036
aS''
asS'12666'
p5037
(lp5038
S'675-62-7'
p5039
aS''
asS'6654'
p5040
(lp5041
S'67762-73-6'
p5042
aS'7785-70-8'
p5043
aS'80-56-8'
p5044
aS'80-56-8'
p5045
aS''
asS'12661'
p5046
(lp5047
S'674-82-8'
p5048
aS''
asS'5839'
p5049
(lp5050
S'52-39-1'
p5051
aS''
asS'10800'
p5052
(lp5053
S'534-52-1'
p5054
aS'534-52-1'
p5055
aS''
asS'5910'
p5056
(lp5057
S'54-71-7'
p5058
aS''
asS'199'
p5059
(lp5060
S'306-60-5'
p5061
aS''
asS'195'
p5062
(lp5063
S'19046-78-7'
p5064
aS''
asS'196'
p5065
(lp5066
S'124-04-9'
p5067
aS'124-04-9'
p5068
aS''
asS'190'
p5069
(lp5070
S'73-24-5'
p5071
aS''
asS'193'
p5072
(lp5073
S'979-92-0'
p5074
aS''
asS'6385'
p5075
(lp5076
S'75-64-9'
p5077
aS''
asS'6384'
p5078
(lp5079
S'75-63-8'
p5080
aS'75-63-8'
p5081
aS''
asS'6387'
p5082
(lp5083
S'75-66-1'
p5084
aS''
asS'6386'
p5085
(lp5086
S'75-65-0'
p5087
aS'75-65-0'
p5088
aS'75-65-0'
p5089
aS''
asS'3672'
p5090
(lp5091
S'15687-27-1'
p5092
aS'15687-27-1'
p5093
aS''
asS'6389'
p5094
(lp5095
S'75-69-4'
p5096
aS'75-69-4'
p5097
aS''
asS'3677'
p5098
(lp5099
S'100-92-5'
p5100
aS''
asS'3675'
p5101
(lp5102
S'51-71-8'
p5103
aS''
asS'2541'
p5104
(lp5105
S'139481-59-7'
p5106
aS''
asS'11683'
p5107
(lp5108
S'595-33-5'
p5109
aS''
asS'2381'
p5110
(lp5111
S'514-65-8'
p5112
aS''
asS'6325'
p5113
(lp5114
S'74-85-1'
p5115
aS'74-85-1'
p5116
aS''
asS'3671'
p5117
(lp5118
S'50847-11-5'
p5119
aS''
asS'12793'
p5120
(lp5121
S'701-64-4'
p5122
aS''
asS'10332'
p5123
(lp5124
S'496-72-0'
p5125
aS''
asS'7302'
p5126
(lp5127
S'187997-16-6'
p5128
aS'96-48-0'
p5129
aS''
asS'2769'
p5130
(lp5131
S'81098-60-4'
p5132
aS''
asS'9153'
p5133
(lp5134
S'205-99-2'
p5135
aS''
asS'3589'
p5136
(lp5137
S'76-44-8'
p5138
aS'76-44-8'
p5139
aS''
asS'2761'
p5140
(lp5141
S'298-57-7'
p5142
aS''
asS'2767'
p5143
(lp5144
S'15663-27-1'
p5145
aS''
asS'2764'
p5146
(lp5147
S'85721-33-1'
p5148
aS''
asS'7909'
p5149
(lp5150
S'108-10-1'
p5151
aS'108-10-1'
p5152
aS'108-10-1'
p5153
aS''
asS'7301'
p5154
(lp5155
S'96-47-9'
p5156
aS''
asS'7900'
p5157
(lp5158
S'107-98-2'
p5159
aS'107-98-2'
p5160
aS'107-98-2'
p5161
aS''
asS'14985'
p5162
(lp5163
S'59-02-9'
p5164
aS''
asS'7902'
p5165
(lp5166
S'108-01-0'
p5167
aS''
asS'7903'
p5168
(lp5169
S'108-03-2'
p5170
aS'108-03-2'
p5171
aS'108-03-2'
p5172
aS''
asS'7904'
p5173
(lp5174
S'108-05-4'
p5175
aS'108-05-4'
p5176
aS'108-05-4'
p5177
aS''
asS'4049'
p5178
(lp5179
S'6284-40-8'
p5180
aS''
asS'6274'
p5181
(lp5182
S'71-00-1'
p5183
aS''
asS'6277'
p5184
(lp5185
S'71-48-7'
p5186
aS''
asS'6276'
p5187
(lp5188
S'71-41-0'
p5189
aS''
asS'6279'
p5190
(lp5191
S'71-58-9'
p5192
aS''
asS'6278'
p5193
(lp5194
S'71-55-6'
p5195
aS'71-55-6'
p5196
aS'71-55-6'
p5197
aS''
asS'13331'
p5198
(lp5199
S'467-83-4'
p5200
aS''
asS'8883'
p5201
(lp5202
S'142-30-3'
p5203
aS''
asS'6077'
p5204
(lp5205
S'61-00-7'
p5206
aS''
asS'3251'
p5207
(lp5208
S'113-15-5'
p5209
aS''
asS'241'
p5210
(lp5211
S'71-43-2'
p5212
aS'71-43-2'
p5213
aS'71-43-2'
p5214
aS''
asS'3360'
p5215
(lp5216
S'23779-99-9'
p5217
aS''
asS'4956'
p5218
(lp5219
S'41598-07-6'
p5220
aS''
asS'9554'
p5221
(lp5222
S'335-67-1'
p5223
aS''
asS'12089'
p5224
(lp5225
S'619-67-0'
p5226
aS''
asS'14037'
p5227
(lp5228
S'1068-27-5'
p5229
aS''
asS'7346'
p5230
(lp5231
S'97-72-3'
p5232
aS''
asS'7347'
p5233
(lp5234
S'97-74-5'
p5235
aS''
asS'7344'
p5236
(lp5237
S'97-64-3'
p5238
aS''
asS'7345'
p5239
(lp5240
S'97-69-8'
p5241
aS''
asS'3298'
p5242
(lp5243
S'86227-47-6'
p5244
aS''
asS'7343'
p5245
(lp5246
S'97-63-2'
p5247
aS''
asS'5139'
p5248
(lp5249
S'1071-37-0'
p5250
aS'2986-20-1'
p5251
aS''
asS'10026'
p5252
(lp5253
S'110-46-3'
p5254
aS''
asS'3295'
p5255
(lp5256
S'452-35-7'
p5257
aS''
asS'10796'
p5258
(lp5259
S'534-17-8'
p5260
aS''
asS'10797'
p5261
(lp5262
S'534-22-5'
p5263
aS''
asS'3290'
p5264
(lp5265
S'1094-08-2'
p5266
aS''
asS'3291'
p5267
(lp5268
S'77-67-8'
p5269
aS''
asS'3292'
p5270
(lp5271
S'86-35-1'
p5272
aS''
asS'13205'
p5273
(lp5274
S'823-40-5'
p5275
aS''
asS'4455'
p5276
(lp5277
S'2009-64-5'
p5278
aS''
asS'6'
(lp5279
S'97-00-7'
p5280
aS''
asS'13246'
p5281
(lp5282
S'830-13-7'
p5283
aS''
asS'14787'
p5284
(lp5285
S'1308-14-1'
p5286
aS''
asS'14786'
p5287
(lp5288
S'1307-96-6'
p5289
aS''
asS'14969'
p5290
(lp5291
S'1404-90-6'
p5292
aS''
asS'14782'
p5293
(lp5294
S'1306-19-0'
p5295
aS'1306-19-0'
p5296
aS''
asS'14781'
p5297
(lp5298
S'1306-06-5'
p5299
aS''
asS'11918'
p5300
(lp5301
S'38888-98-1'
p5302
aS''
asS'7000'
p5303
(lp5304
S'90-04-0'
p5305
aS'90-04-0'
p5306
aS'90-04-0'
p5307
aS''
asS'10240'
p5308
(lp5309
S'486-17-9'
p5310
aS''
asS'9026'
p5311
(lp5312
S'151-13-3'
p5313
aS''
asS'8907'
p5314
(lp5315
S'142-91-6'
p5316
aS''
asS'5883'
p5317
(lp5318
S'5818-17-7'
p5319
aS''
asS'3973'
p5320
(lp5321
S'154447-36-6'
p5322
aS''
asS'8906'
p5323
(lp5324
S'142-90-5'
p5325
aS''
asS'2788'
p5326
(lp5327
S'130-26-7'
p5328
aS''
asS'14814'
p5329
(lp5330
S'1314-62-1'
p5331
aS'1314-62-1'
p5332
aS'1314-62-1'
p5333
aS'1314-62-1'
p5334
aS''
asS'4912'
p5335
(lp5336
S'23288-49-5'
p5337
aS''
asS'2910'
p5338
(lp5339
S'2259-96-3'
p5340
aS''
asS'743'
p5341
(lp5342
S'110-94-1'
p5343
aS'110-94-1'
p5344
aS'68603-87-2'
p5345
aS'68937-69-9'
p5346
aS''
asS'12813'
p5347
(lp5348
S'706-14-9'
p5349
aS''
asS'2911'
p5350
(lp5351
S'77-39-4'
p5352
aS''
asS'449'
p5353
(lp5354
S'150-97-0'
p5355
aS''
asS'8560'
p5356
(lp5357
S'131-17-9'
p5358
aS''
asS'7955'
p5359
(lp5360
S'108-78-1'
p5361
aS''
asS'3063'
p5362
(lp5363
S'125-28-0'
p5364
aS''
asS'3061'
p5365
(lp5366
S'71-63-6'
p5367
aS''
asS'6895'
p5368
(lp5369
S'12002-48-1'
p5370
aS'87-61-6'
p5371
aS''
asS'2949'
p5372
(lp5373
S'17230-88-5'
p5374
aS''
asS'7290'
p5375
(lp5376
S'96-24-2'
p5377
aS''
asS'1050'
p5378
(lp5379
S'65-22-5'
p5380
aS''
asS'1051'
p5381
(lp5382
S'54-47-7'
p5383
aS''
asS'5355'
p5384
(lp5385
S'15676-16-1'
p5386
aS''
asS'1054'
p5387
(lp5388
S'65-23-6'
p5389
aS''
asS'5352'
p5390
(lp5391
S'38194-50-2'
p5392
aS''
asS'5351'
p5393
(lp5394
S'144-75-2'
p5395
aS''
asS'11185'
p5396
(lp5397
S'557-20-0'
p5398
aS''
asS'5359'
p5399
(lp5400
S'40828-46-4'
p5401
aS''
asS'5358'
p5402
(lp5403
S'103628-46-2'
p5404
aS''
asS'14817'
p5405
(lp5406
S'1314-80-3'
p5407
aS'1314-80-3'
p5408
aS'1314-80-3'
p5409
aS''
asS'7642'
p5410
(lp5411
S'103-24-2'
p5412
aS''
asS'618'
p5413
(lp5414
S'20479-58-7'
p5415
aS''
asS'619'
p5416
(lp5417
S'551-84-8'
p5418
aS''
asS'612'
p5419
(lp5420
S'50-21-5'
p5421
aS'50-21-5'
p5422
aS'79-33-4'
p5423
aS''
asS'6076'
p5424
(lp5425
S'60-92-4'
p5426
aS''
asS'712'
p5427
(lp5428
S'50-00-0'
p5429
aS'30525-89-4'
p5430
aS'50-00-0'
p5431
aS'50-00-0'
p5432
aS'50-00-0'
p5433
aS''
asS'14789'
p5434
(lp5435
S'1309-38-2'
p5436
aS''
asS'8795'
p5437
(lp5438
S'140-31-8'
p5439
aS''
asS'14767'
p5440
(lp5441
S'1302-52-9'
p5442
aS''
asS'14766'
p5443
(lp5444
S'11138-49-1'
p5445
aS''
asS'1491'
p5446
(lp5447
S'89-86-1'
p5448
aS'89-86-1'
p5449
aS''
asS'3117'
p5450
(lp5451
S'97-77-8'
p5452
aS'97-77-8'
p5453
aS'97-77-8'
p5454
aS'97-77-8'
p5455
aS''
asS'11450'
p5456
(lp5457
S'585-34-2'
p5458
aS''
asS'3114'
p5459
(lp5460
S'3737-09-5'
p5461
aS''
asS'14945'
p5462
(lp5463
S'1345-25-1'
p5464
aS''
asS'6849'
p5465
(lp5466
S'86-57-7'
p5467
aS''
asS'1474'
p5468
(lp5469
S'366-18-7'
p5470
aS''
asS'8646'
p5471
(lp5472
S'134-58-7'
p5473
aS''
asS'8640'
p5474
(lp5475
S'134-32-7'
p5476
aS'134-32-7'
p5477
aS''
asS'7040'
p5478
(lp5479
S'91-08-7'
p5480
aS'91-08-7'
p5481
aS''
asS'8426'
p5482
(lp5483
S'120-35-4'
p5484
aS''
asS'6416'
p5485
(lp5486
S'75-97-8'
p5487
aS''
asS'9268'
p5488
(lp5489
S'294-62-2'
p5490
aS''
asS'3335'
p5491
(lp5492
S'36330-85-5'
p5493
aS''
asS'8420'
p5494
(lp5495
S'120-18-3'
p5496
aS''
asS'12460'
p5497
(lp5498
S'634-03-7'
p5499
aS''
asS'4678'
p5500
(lp5501
S'16485-10-2'
p5502
aS'81-13-0'
p5503
aS''
asS'5727'
p5504
(lp5505
S'7646-85-7'
p5506
aS'7646-85-7'
p5507
aS'7646-85-7'
p5508
aS''
asS'3308'
p5509
(lp5510
S'41340-25-4'
p5511
aS''
asS'5742'
p5512
(lp5513
S'50-01-1'
p5514
aS''
asS'5743'
p5515
(lp5516
S'50-02-2'
p5517
aS''
asS'5746'
p5518
(lp5519
S'50-07-7'
p5520
aS''
asS'13931'
p5521
(lp5522
S'1025-15-6'
p5523
aS''
asS'13930'
p5524
(lp5525
S'1024-57-3'
p5526
aS''
asS'5587'
p5527
(lp5528
S'91-81-6'
p5529
aS''
asS'5584'
p5530
(lp5531
S'739-71-9'
p5532
aS''
asS'6478'
p5533
(lp5534
S'77-47-4'
p5535
aS'77-47-4'
p5536
aS'77-47-4'
p5537
aS''
asS'10128'
p5538
(lp5539
S'473-54-1'
p5540
aS'4948-28-1'
p5541
aS'4948-29-2'
p5542
aS''
asS'5583'
p5543
(lp5544
S'52128-35-5'
p5545
aS''
asS'7479'
p5546
(lp5547
S'100-10-7'
p5548
aS''
asS'6473'
p5549
(lp5550
S'77-28-1'
p5551
aS''
asS'14813'
p5552
(lp5553
S'1314-60-9'
p5554
aS''
asS'7595'
p5555
(lp5556
S'102-07-8'
p5557
aS''
asS'7594'
p5558
(lp5559
S'102-06-7'
p5560
aS''
asS'6476'
p5561
(lp5562
S'77-41-8'
p5563
aS''
asS'12404'
p5564
(lp5565
S'629-96-9'
p5566
aS''
asS'7590'
p5567
(lp5568
S'101-97-3'
p5569
aS''
asS'7308'
p5570
(lp5571
S'96-69-5'
p5572
aS'96-69-5'
p5573
aS'96-69-5'
p5574
aS''
asS'7758'
p5575
(lp5576
S'105-46-4'
p5577
aS'105-46-4'
p5578
aS''
asS'3180'
p5579
(lp5580
S'586-60-7'
p5581
aS''
asS'7757'
p5582
(lp5583
S'105-45-3'
p5584
aS''
asS'7756'
p5585
(lp5586
S'105-44-2'
p5587
aS''
asS'7751'
p5588
(lp5589
S'105-39-5'
p5590
aS''
asS'3598'
p5591
(lp5592
S'70-30-4'
p5593
aS''
asS'3939'
p5594
(lp5595
S'1310-65-2'
p5596
aS''
asS'4212'
p5597
(lp5598
S'65271-80-9'
p5599
aS''
asS'11271'
p5600
(lp5601
S'565-80-0'
p5602
aS''
asS'11273'
p5603
(lp5604
S'566-48-3'
p5605
aS''
asS'9904'
p5606
(lp5607
S'434-22-0'
p5608
aS''
asS'12532'
p5609
(lp5610
S'638-65-3'
p5611
aS''
asS'14811'
p5612
(lp5613
S'1314-35-8'
p5614
aS''
asS'12530'
p5615
(lp5616
S'638-53-9'
p5617
aS'68002-90-4'
p5618
aS''
asS'14788'
p5619
(lp5620
S'1309-36-0'
p5621
aS''
asS'4130'
p5622
(lp5623
S'298-00-0'
p5624
aS'298-00-0'
p5625
aS''
asS'4133'
p5626
(lp5627
S'119-36-8'
p5628
aS''
asS'7475'
p5629
(lp5630
S'100-01-6'
p5631
aS'100-01-6'
p5632
aS'100-01-6'
p5633
aS''
asS'3840'
p5634
(lp5635
S'501-30-4'
p5636
aS''
asS'4436'
p5637
(lp5638
S'835-31-4'
p5639
aS''
asS'3631'
p5640
(lp5641
S'103548-82-9'
p5642
aS''
asS'4612'
p5643
(lp5644
S'21738-42-1'
p5645
aS''
asS'14940'
p5646
(lp5647
S'1344-43-0'
p5648
aS''
asS'7854'
p5649
(lp5650
S'107-12-0'
p5651
aS'107-12-0'
p5652
aS'107-12-0'
p5653
aS''
asS'4583'
p5654
(lp5655
S'82419-36-1'
p5656
aS''
asS'8620'
p5657
(lp5658
S'133-49-3'
p5659
aS''
asS'13286'
p5660
(lp5661
S'839-90-7'
p5662
aS''
asS'6660'
p5663
(lp5664
S'80-71-7'
p5665
aS''
asS'6661'
p5666
(lp5667
S'80-73-9'
p5668
aS''
asS'5585'
p5669
(lp5670
S'3902-71-4'
p5671
aS''
asS'13021'
p5672
(lp5673
S'767-15-7'
p5674
aS''
asS'5960'
p5675
(lp5676
S'56-84-8'
p5677
aS'56-84-8'
p5678
aS''
asS'10870'
p5679
(lp5680
S'538-93-2'
p5681
aS''
asS'5962'
p5682
(lp5683
S'56-87-1'
p5684
aS'923-27-3'
p5685
aS''
asS'5963'
p5686
(lp5687
S'56-93-9'
p5688
aS''
asS'3661'
p5689
(lp5690
S'101-31-5'
p5691
aS'51-55-8'
p5692
aS''
asS'3662'
p5693
(lp5694
S'11079-53-1'
p5695
aS''
asS'2284'
p5696
(lp5697
S'1134-47-0'
p5698
aS''
asS'2286'
p5699
(lp5700
S'1675-54-3'
p5701
aS''
asS'2287'
p5702
(lp5703
S'88899-55-2'
p5704
aS''
asS'974'
p5705
(lp5706
S'471-47-6'
p5707
aS''
asS'4541'
p5708
(lp5709
S'126924-38-7'
p5710
aS''
asS'4543'
p5711
(lp5712
S'72-69-5'
p5713
aS''
asS'4943'
p5714
(lp5715
S'2078-54-8'
p5716
aS'2078-54-8'
p5717
aS''
asS'2578'
p5718
(lp5719
S'154-93-8'
p5720
aS''
asS'2576'
p5721
(lp5722
S'78-44-4'
p5723
aS''
asS'2577'
p5724
(lp5725
S'61422-45-5'
p5726
aS''
asS'11693'
p5727
(lp5728
S'596-51-0'
p5729
aS''
asS'10907'
p5730
(lp5731
S'540-84-1'
p5732
aS''
asS'2378'
p5733
(lp5734
S'60628-96-8'
p5735
aS''
asS'10900'
p5736
(lp5737
S'540-59-0'
p5738
aS'540-59-0'
p5739
aS'540-59-0'
p5740
aS''
asS'2374'
p5741
(lp5742
S'88-58-4'
p5743
aS''
asS'2375'
p5744
(lp5745
S'90357-06-5'
p5746
aS''
asS'4927'
p5747
(lp5748
S'60-87-7'
p5749
aS''
asS'2370'
p5750
(lp5751
S'674-38-4'
p5752
aS''
asS'10908'
p5753
(lp5754
S'540-88-5'
p5755
aS'540-88-5'
p5756
aS'540-88-5'
p5757
aS''
asS'2372'
p5758
(lp5759
S'59170-23-9'
p5760
aS''
asS'3596'
p5761
(lp5762
S'3511-16-8'
p5763
aS''
asS'5431'
p5764
(lp5765
S'154-87-0'
p5766
aS''
asS'5035'
p5767
(lp5768
S'84449-90-1'
p5769
aS''
asS'7918'
p5770
(lp5771
S'108-24-7'
p5772
aS'108-24-7'
p5773
aS'108-24-7'
p5774
aS''
asS'3696'
p5775
(lp5776
S'50-49-7'
p5777
aS''
asS'4432'
p5778
(lp5779
S'360-70-3'
p5780
aS''
asS'7913'
p5781
(lp5782
S'108-19-0'
p5783
aS''
asS'7912'
p5784
(lp5785
S'108-18-9'
p5786
aS'108-18-9'
p5787
aS'108-18-9'
p5788
aS''
asS'6442'
p5789
(lp5790
S'76-39-1'
p5791
aS''
asS'7910'
p5792
(lp5793
S'108-11-2'
p5794
aS'108-11-2'
p5795
aS'108-11-2'
p5796
aS''
asS'7917'
p5797
(lp5798
S'108-23-6'
p5799
aS''
asS'7915'
p5800
(lp5801
S'108-21-4'
p5802
aS'108-21-4'
p5803
aS'108-21-4'
p5804
aS''
asS'7914'
p5805
(lp5806
S'108-20-3'
p5807
aS'108-20-3'
p5808
aS'108-20-3'
p5809
aS''
asS'977'
p5810
(lp5811
S'7782-44-7'
p5812
aS''
asS'4944'
p5813
(lp5814
S'114-26-1'
p5815
aS'114-26-1'
p5816
aS''
asS'4947'
p5817
(lp5818
S'121-79-9'
p5819
aS''
asS'4946'
p5820
(lp5821
S'525-66-6'
p5822
aS''
asS'6288'
p5823
(lp5824
S'72-19-5'
p5825
aS'72-19-5'
p5826
aS''
asS'4940'
p5827
(lp5828
S'362-29-8'
p5829
aS''
asS'971'
p5830
(lp5831
S'144-62-7'
p5832
aS'144-62-7'
p5833
aS'144-62-7'
p5834
aS'144-62-7'
p5835
aS''
asS'6285'
p5836
(lp5837
S'71-91-0'
p5838
aS''
asS'6287'
p5839
(lp5840
S'72-18-4'
p5841
aS'72-18-4'
p5842
aS''
asS'6281'
p5843
(lp5844
S'71-63-6'
p5845
aS''
asS'978'
p5846
(lp5847
S'150-13-0'
p5848
aS'150-13-0'
p5849
aS''
asS'6042'
p5850
(lp5851
S'59-43-8'
p5852
aS''
asS'180'
p5853
(lp5854
S'67-64-1'
p5855
aS'67-64-1'
p5856
aS'67-64-1'
p5857
aS''
asS'6041'
p5858
(lp5859
S'59-42-7'
p5860
aS'61-76-7'
p5861
aS''
asS'6209'
p5862
(lp5863
S'67-48-1'
p5864
aS''
asS'6049'
p5865
(lp5866
S'62-33-9'
p5867
aS'139-33-3'
p5868
aS'60-00-4'
p5869
aS'62-33-9'
p5870
aS''
asS'187'
p5871
(lp5872
S'51-84-3'
p5873
aS''
asS'2624'
p5874
(lp5875
S'65085-01-0'
p5876
aS''
asS'14025'
p5877
(lp5878
S'1067-53-4'
p5879
aS''
asS'7952'
p5880
(lp5881
S'108-74-7'
p5882
aS''
asS'7351'
p5883
(lp5884
S'97-85-8'
p5885
aS''
asS'7352'
p5886
(lp5887
S'97-86-9'
p5888
aS''
asS'7355'
p5889
(lp5890
S'97-90-5'
p5891
aS''
asS'7354'
p5892
(lp5893
S'9011-15-8'
p5894
aS'97-88-1'
p5895
aS''
asS'9584'
p5896
(lp5897
S'348-54-9'
p5898
aS''
asS'3286'
p5899
(lp5900
S'563-12-2'
p5901
aS'563-12-2'
p5902
aS''
asS'3285'
p5903
(lp5904
S'57-63-6'
p5905
aS''
asS'3284'
p5906
(lp5907
S'126-52-3'
p5908
aS''
asS'3283'
p5909
(lp5910
S'60-29-7'
p5911
aS'69227-20-9'
p5912
aS'60-29-7'
p5913
aS'60-29-7'
p5914
aS''
asS'5833'
p5915
(lp5916
S'52-01-7'
p5917
aS''
asS'8944'
p5918
(lp5919
S'144-14-9'
p5920
aS''
asS'12810'
p5921
(lp5922
S'705-86-2'
p5923
aS''
asS'5831'
p5924
(lp5925
S'51-83-2'
p5926
aS''
asS'867'
p5927
(lp5928
S'141-82-2'
p5929
aS'141-82-2'
p5930
aS'141-82-2'
p5931
aS''
asS'2756'
p5932
(lp5933
S'51481-61-9'
p5934
aS''
asS'12348'
p5935
(lp5936
S'628-63-7'
p5937
aS'628-63-7'
p5938
aS'628-63-7'
p5939
aS''
asS'2754'
p5940
(lp5941
S'73963-72-1'
p5942
aS''
asS'4011'
p5943
(lp5944
S'10262-69-8'
p5945
aS''
asS'2758'
p5946
(lp5947
S'470-82-6'
p5948
aS'470-82-6'
p5949
aS''
asS'14452'
p5950
(lp5951
S'1184-64-1'
p5952
aS''
asS'14798'
p5953
(lp5954
S'1310-73-2'
p5955
aS'1310-73-2'
p5956
aS'1310-73-2'
p5957
aS''
asS'887'
p5958
(lp5959
S'67-56-1'
p5960
aS'67-56-1'
p5961
aS'67-56-1'
p5962
aS''
asS'14792'
p5963
(lp5964
S'1309-48-4'
p5965
aS'1309-48-4'
p5966
aS'1309-48-4'
p5967
aS'1309-48-4'
p5968
aS''
asS'14793'
p5969
(lp5970
S'1309-60-0'
p5971
aS''
asS'14794'
p5972
(lp5973
S'1309-64-4'
p5974
aS''
asS'8089'
p5975
(lp5976
S'111-01-3'
p5977
aS''
asS'3148'
p5978
(lp5979
S'115956-12-2'
p5980
aS''
asS'10477'
p5981
(lp5982
S'506-77-4'
p5983
aS'506-77-4'
p5984
aS''
asS'5215'
p5985
(lp5986
S'68-35-9'
p5987
aS''
asS'5212'
p5988
(lp5989
S'139755-83-2'
p5990
aS''
asS'10472'
p5991
(lp5992
S'506-51-4'
p5993
aS''
asS'9051'
p5994
(lp5995
S'152-62-5'
p5996
aS''
asS'7504'
p5997
(lp5998
S'100-46-9'
p5999
aS'100-46-9'
p6000
aS''
asS'356'
p6001
(lp6002
S'111-65-9'
p6003
aS'111-65-9'
p6004
aS'111-65-9'
p6005
aS'111-65-9'
p6006
aS''
asS'8927'
p6007
(lp6008
S'143-28-2'
p6009
aS''
asS'8926'
p6010
(lp6011
S'143-27-1'
p6012
aS''
asS'8925'
p6013
(lp6014
S'143-24-8'
p6015
aS''
asS'13109'
p6016
(lp6017
S'797-63-7'
p6018
aS''
asS'14806'
p6019
(lp6020
S'1314-13-2'
p6021
aS'1314-13-2'
p6022
aS''
asS'13101'
p6023
(lp6024
S'793-24-8'
p6025
aS''
asS'8929'
p6026
(lp6027
S'143-33-9'
p6028
aS'143-33-9'
p6029
aS'143-33-9'
p6030
aS''
asS'8928'
p6031
(lp6032
S'143-29-3'
p6033
aS''
asS'777'
p6034
(lp6035
S'73-67-6'
p6036
aS''
asS'772'
p6037
(lp6038
S'9005-49-6'
p6039
aS'9005-49-6'
p6040
aS''
asS'7503'
p6041
(lp6042
S'100-44-7'
p6043
aS'100-44-7'
p6044
aS'100-44-7'
p6045
aS''
asS'14489'
p6046
(lp6047
S'1191-16-8'
p6048
aS''
asS'6868'
p6049
(lp6050
S'87-02-5'
p6051
aS''
asS'72'
p6052
(lp6053
S'99-50-3'
p6054
aS''
asS'3059'
p6055
(lp6056
S'22494-42-4'
p6057
aS''
asS'2973'
p6058
(lp6059
S'70-51-9'
p6060
aS''
asS'3054'
p6061
(lp6062
S'56-53-1'
p6063
aS''
asS'3053'
p6064
(lp6065
S'67-43-6'
p6066
aS''
asS'79'
p6067
(lp6068
S'100-54-9'
p6069
aS''
asS'5363'
p6070
(lp6071
S'72741-87-8'
p6072
aS''
asS'5361'
p6073
(lp6074
S'145-63-1'
p6075
aS''
asS'1046'
p6076
(lp6077
S'98-96-4'
p6078
aS''
asS'1045'
p6079
(lp6080
S'110-60-1'
p6081
aS'110-60-1'
p6082
aS''
asS'1049'
p6083
(lp6084
S'110-86-1'
p6085
aS'110-86-1'
p6086
aS'110-86-1'
p6087
aS''
asS'1048'
p6088
(lp6089
S'288-13-1'
p6090
aS''
asS'7333'
p6091
(lp6092
S'97-39-2'
p6093
aS''
asS'1684'
p6094
(lp6095
S'153168-05-9'
p6096
aS''
asS'9047'
p6097
(lp6098
S'152-47-6'
p6099
aS''
asS'8255'
p6100
(lp6101
S'115-11-7'
p6102
aS''
asS'8254'
p6103
(lp6104
S'115-10-6'
p6105
aS''
asS'7247'
p6106
(lp6107
S'95-63-6'
p6108
aS'95-63-6'
p6109
aS''
asS'8252'
p6110
(lp6111
S'115-07-1'
p6112
aS'115-07-1'
p6113
aS''
asS'7636'
p6114
(lp6115
S'103-11-7'
p6116
aS''
asS'8258'
p6117
(lp6118
S'115-19-5'
p6119
aS''
asS'8783'
p6120
(lp6121
S'140-08-9'
p6122
aS''
asS'8780'
p6123
(lp6124
S'140-03-4'
p6125
aS''
asS'8785'
p6126
(lp6127
S'140-11-4'
p6128
aS'140-11-4'
p6129
aS''
asS'14776'
p6130
(lp6131
S'1304-76-3'
p6132
aS''
asS'9237'
p6133
(lp6134
S'280-57-9'
p6135
aS''
asS'7618'
p6136
(lp6137
S'102-71-6'
p6138
aS'102-71-6'
p6139
aS''
asS'7619'
p6140
(lp6141
S'102-77-2'
p6142
aS''
asS'14770'
p6143
(lp6144
S'1303-00-0'
p6145
aS''
asS'14771'
p6146
(lp6147
S'1303-28-2'
p6148
aS''
asS'7615'
p6149
(lp6150
S'102-60-3'
p6151
aS''
asS'3120'
p6152
(lp6153
S'330-54-1'
p6154
aS'330-54-1'
p6155
aS'330-54-1'
p6156
aS''
asS'3121'
p6157
(lp6158
S'99-66-1'
p6159
aS''
asS'7611'
p6160
(lp6161
S'102-54-5'
p6162
aS'102-54-5'
p6163
aS''
asS'7612'
p6164
(lp6165
S'542-92-7'
p6166
aS'542-92-7'
p6167
aS'542-92-7'
p6168
aS''
asS'14779'
p6169
(lp6170
S'1305-79-9'
p6171
aS''
asS'4456'
p6172
(lp6173
S'59-99-4'
p6174
aS''
asS'5105'
p6175
(lp6176
S'78628-28-1'
p6177
aS''
asS'8657'
p6178
(lp6179
S'25340-17-4'
p6180
aS''
asS'1317'
p6181
(lp6182
S'646-25-3'
p6183
aS''
asS'8430'
p6184
(lp6185
S'120-40-1'
p6186
aS''
asS'5152'
p6187
(lp6188
S'89365-50-4'
p6189
aS''
asS'8437'
p6190
(lp6191
S'120-55-8'
p6192
aS''
asS'8438'
p6193
(lp6194
S'120-57-0'
p6195
aS''
asS'1318'
p6196
(lp6197
S'66-71-7'
p6198
aS'66-71-7'
p6199
aS''
asS'6446'
p6200
(lp6201
S'76-43-7'
p6202
aS''
asS'6917'
p6203
(lp6204
S'88-12-0'
p6205
aS'9003-39-8'
p6206
aS'88-12-0'
p6207
aS''
asS'5757'
p6208
(lp6209
S'50-28-2'
p6210
aS''
asS'5756'
p6211
(lp6212
S'50-27-1'
p6213
aS''
asS'6912'
p6214
(lp6215
S'488-81-3'
p6216
aS''
asS'5754'
p6217
(lp6218
S'50-23-7'
p6219
aS''
asS'4236'
p6220
(lp6221
S'68693-11-8'
p6222
aS''
asS'4235'
p6223
(lp6224
S'71320-77-9'
p6225
aS''
asS'6448'
p6226
(lp6227
S'125-12-2'
p6228
aS''
asS'3448'
p6229
(lp6230
S'64603-91-4'
p6231
aS''
asS'5591'
p6232
(lp6233
S'97322-87-7'
p6234
aS''
asS'8865'
p6235
(lp6236
S'141-95-7'
p6237
aS''
asS'5593'
p6238
(lp6239
S'1508-75-4'
p6240
aS''
asS'5596'
p6241
(lp6242
S'10405-02-4'
p6243
aS''
asS'6126'
p6244
(lp6245
S'62-97-5'
p6246
aS''
asS'14896'
p6247
(lp6248
S'127-91-3'
p6249
aS''
asS'7720'
p6250
(lp6251
S'104-76-7'
p6252
aS''
asS'7724'
p6253
(lp6254
S'104-85-8'
p6255
aS''
asS'7725'
p6256
(lp6257
S'104-87-0'
p6258
aS''
asS'7726'
p6259
(lp6260
S'104-88-1'
p6261
aS''
asS'3948'
p6262
(lp6263
S'98079-51-7'
p6264
aS''
asS'313'
p6265
(lp6266
S'7647-01-0'
p6267
aS'7647-01-0'
p6268
aS'7647-01-0'
p6269
aS''
asS'311'
p6270
(lp6271
S'77-92-9'
p6272
aS'77-92-9'
p6273
aS''
asS'12219'
p6274
(lp6275
S'624-78-2'
p6276
aS''
asS'317'
p6277
(lp6278
S'85-61-0'
p6279
aS''
asS'3440'
p6280
(lp6281
S'54-31-9'
p6282
aS''
asS'11201'
p6283
(lp6284
S'557-91-5'
p6285
aS''
asS'11203'
p6286
(lp6287
S'557-98-2'
p6288
aS''
asS'12597'
p6289
(lp6290
S'652-67-5'
p6291
aS''
asS'11205'
p6292
(lp6293
S'558-13-4'
p6294
aS'558-13-4'
p6295
aS''
asS'8512'
p6296
(lp6297
S'129-43-1'
p6298
aS''
asS'4121'
p6299
(lp6300
S'135-07-9'
p6301
aS''
asS'7430'
p6302
(lp6303
S'99-30-9'
p6304
aS''
asS'7439'
p6305
(lp6306
S'6485-40-1'
p6307
aS'8008-79-5'
p6308
aS''
asS'4367'
p6309
(lp6310
S'2149-70-4'
p6311
aS''
asS'10712'
p6312
(lp6313
S'16462-44-5'
p6314
aS''
asS'6675'
p6315
(lp6316
S'81-24-3'
p6317
aS''
asS'6676'
p6318
(lp6319
S'81-25-4'
p6320
aS''
asS'6670'
p6321
(lp6322
S'81-16-3'
p6323
aS''
asS'444'
p6324
(lp6325
S'34841-39-9'
p6326
aS''
asS'4057'
p6327
(lp6328
S'25990-43-6'
p6329
aS''
asS'13745'
p6330
(lp6331
S'22248-79-9'
p6332
aS''
asS'13740'
p6333
(lp6334
S'959-55-7'
p6335
aS''
asS'5979'
p6336
(lp6337
S'57-24-9'
p6338
aS'57-24-9'
p6339
aS''
asS'5978'
p6340
(lp6341
S'57-22-7'
p6342
aS''
asS'10491'
p6343
(lp6344
S'507-63-1'
p6345
aS''
asS'3019'
p6346
(lp6347
S'364-98-7'
p6348
aS''
asS'5674'
p6349
(lp6350
S'21411-53-0'
p6351
aS''
asS'5970'
p6352
(lp6353
S'461-06-3'
p6354
aS''
asS'5976'
p6355
(lp6356
S'57-14-7'
p6357
aS'57-14-7'
p6358
aS''
asS'5974'
p6359
(lp6360
S'57-09-0'
p6361
aS'57-09-0'
p6362
aS''
asS'7070'
p6363
(lp6364
S'91-94-1'
p6365
aS'91-94-1'
p6366
aS''
asS'6934'
p6367
(lp6368
S'88-44-8'
p6369
aS''
asS'8128'
p6370
(lp6371
S'111-69-3'
p6372
aS'68411-90-5'
p6373
aS'111-69-3'
p6374
aS'111-69-3'
p6375
aS''
asS'14877'
p6376
(lp6377
S'1323-38-2'
p6378
aS''
asS'2294'
p6379
(lp6380
S'57-44-3'
p6381
aS''
asS'14871'
p6382
(lp6383
S'142-18-7'
p6384
aS''
asS'12672'
p6385
(lp6386
S'677-21-4'
p6387
aS''
asS'8125'
p6388
(lp6389
S'111-66-0'
p6390
aS''
asS'8124'
p6391
(lp6392
S'111-64-8'
p6393
aS''
asS'2561'
p6394
(lp6395
S'5697-56-3'
p6396
aS''
asS'12220'
p6397
(lp6398
S'590-18-1'
p6399
aS'624-64-6'
p6400
aS'107-01-7'
p6401
aS''
asS'5196'
p6402
(lp6403
S'563-41-7'
p6404
aS''
asS'2567'
p6405
(lp6406
S'41575-94-4'
p6407
aS''
asS'2566'
p6408
(lp6409
S'1563-66-2'
p6410
aS'1563-66-2'
p6411
aS'1563-66-2'
p6412
aS''
asS'10914'
p6413
(lp6414
S'541-05-9'
p6415
aS''
asS'10913'
p6416
(lp6417
S'541-02-6'
p6418
aS''
asS'2369'
p6419
(lp6420
S'63659-18-7'
p6421
aS''
asS'2366'
p6422
(lp6423
S'5638-76-6'
p6424
aS''
asS'2365'
p6425
(lp6426
S'57-57-8'
p6427
aS'57-57-8'
p6428
aS''
asS'10918'
p6429
(lp6430
S'461-06-3'
p6431
aS''
asS'5029'
p6432
(lp6433
S'117976-89-3'
p6434
aS''
asS'7927'
p6435
(lp6436
S'108-36-1'
p6437
aS''
asS'7924'
p6438
(lp6439
S'108-32-7'
p6440
aS''
asS'2583'
p6441
(lp6442
S'51781-06-7'
p6443
aS''
asS'7923'
p6444
(lp6445
S'108-31-6'
p6446
aS'108-31-6'
p6447
aS'108-31-6'
p6448
aS''
asS'2581'
p6449
(lp6450
S'53716-49-7'
p6451
aS''
asS'7298'
p6452
(lp6453
S'96-41-3'
p6454
aS''
asS'10313'
p6455
(lp6456
S'495-18-1'
p6457
aS''
asS'4440'
p6458
(lp6459
S'121679-13-8'
p6460
aS''
asS'11000'
p6461
(lp6462
S'544-25-2'
p6463
aS''
asS'14796'
p6464
(lp6465
S'1310-53-8'
p6466
aS''
asS'3724'
p6467
(lp6468
S'92339-11-2'
p6469
aS''
asS'4449'
p6470
(lp6471
S'83366-66-9'
p6472
aS''
asS'14797'
p6473
(lp6474
S'1310-58-3'
p6475
aS'1310-58-3'
p6476
aS'1310-58-3'
p6477
aS''
asS'11006'
p6478
(lp6479
S'544-76-3'
p6480
aS''
asS'4932'
p6481
(lp6482
S'54063-53-5'
p6483
aS''
asS'967'
p6484
(lp6485
S'65-86-1'
p6486
aS''
asS'4939'
p6487
(lp6488
S'36015-30-2'
p6489
aS''
asS'5393'
p6490
(lp6491
S'111902-57-9'
p6492
aS''
asS'5578'
p6493
(lp6494
S'738-70-5'
p6495
aS''
asS'6292'
p6496
(lp6497
S'72-44-6'
p6498
aS''
asS'11734'
p6499
(lp6500
S'598-78-7'
p6501
aS''
asS'6058'
p6502
(lp6503
S'60-23-1'
p6504
aS''
asS'6054'
p6505
(lp6506
S'60-12-8'
p6507
aS'60-12-8'
p6508
aS''
asS'6057'
p6509
(lp6510
S'60-18-4'
p6511
aS'556-02-5'
p6512
aS''
asS'11009'
p6513
(lp6514
S'544-92-3'
p6515
aS''
asS'6053'
p6516
(lp6517
S'60-11-7'
p6518
aS'60-11-7'
p6519
aS''
asS'7845'
p6520
(lp6521
S'106-99-0'
p6522
aS'106-99-0'
p6523
aS'106-99-0'
p6524
aS''
asS'10005'
p6525
(lp6526
S'461-58-5'
p6527
aS''
asS'10007'
p6528
(lp6529
S'461-78-9'
p6530
aS''
asS'10473'
p6531
(lp6532
S'506-59-2'
p6533
aS''
asS'5392'
p6534
(lp6535
S'3383-96-8'
p6536
aS'3383-96-8'
p6537
aS'3383-96-8'
p6538
aS''
asS'14013'
p6539
(lp6540
S'1066-33-7'
p6541
aS''
asS'14012'
p6542
(lp6543
S'1066-30-4'
p6544
aS''
asS'2462'
p6545
(lp6546
S'51333-22-3'
p6547
aS''
asS'9229'
p6548
(lp6549
S'274-09-9'
p6550
aS''
asS'9223'
p6551
(lp6552
S'271-89-6'
p6553
aS''
asS'3438'
p6554
(lp6555
S'617-89-0'
p6556
aS''
asS'3092'
p6557
(lp6558
S'148-01-6'
p6559
aS'148-01-6'
p6560
aS''
asS'9053'
p6561
(lp6562
S'152-97-6'
p6563
aS''
asS'878'
p6564
(lp6565
S'74-93-1'
p6566
aS'74-93-1'
p6567
aS'74-93-1'
p6568
aS''
asS'3430'
p6569
(lp6570
S'23110-15-8'
p6571
aS''
asS'874'
p6572
(lp6573
S'498-23-7'
p6574
aS''
asS'875'
p6575
(lp6576
S'133-37-9'
p6577
aS''
asS'3435'
p6578
(lp6579
S'67-45-8'
p6580
aS''
asS'870'
p6581
(lp6582
S'34612-38-9'
p6583
aS'38819-01-1'
p6584
aS''
asS'871'
p6585
(lp6586
S'1109-28-0'
p6587
aS'9004-53-9'
p6588
aS''
asS'4592'
p6589
(lp6590
S'101622-51-9'
p6591
aS''
asS'4848'
p6592
(lp6593
S'28797-61-7'
p6594
aS''
asS'4849'
p6595
(lp6596
S'55837-27-9'
p6597
aS''
asS'4594'
p6598
(lp6599
S'73590-58-6'
p6600
aS'161796-78-7'
p6601
aS''
asS'4595'
p6602
(lp6603
S'99614-02-5'
p6604
aS''
asS'2749'
p6605
(lp6606
S'29342-05-0'
p6607
aS''
asS'10481'
p6608
(lp6609
S'506-93-4'
p6610
aS''
asS'4599'
p6611
(lp6612
S'96829-58-2'
p6613
aS''
asS'10486'
p6614
(lp6615
S'507-20-0'
p6616
aS''
asS'896'
p6617
(lp6618
S'73-31-4'
p6619
aS''
asS'14901'
p6620
(lp6621
S'1330-80-9'
p6622
aS''
asS'14900'
p6623
(lp6624
S'68002-70-0'
p6625
aS''
asS'14906'
p6626
(lp6627
S'2039-87-4'
p6628
aS'2039-87-4'
p6629
aS''
asS'14056'
p6630
(lp6631
S'1070-78-6'
p6632
aS''
asS'10467'
p6633
(lp6634
S'506-30-9'
p6635
aS''
asS'10461'
p6636
(lp6637
S'505-60-2'
p6638
aS''
asS'8917'
p6639
(lp6640
S'143-10-2'
p6641
aS'143-10-2'
p6642
aS''
asS'8914'
p6643
(lp6644
S'28473-21-4'
p6645
aS'28473-21-4'
p6646
aS''
asS'11848'
p6647
(lp6648
S'26099-09-2'
p6649
aS''
asS'11192'
p6650
(lp6651
S'557-34-6'
p6652
aS''
asS'11199'
p6653
(lp6654
S'9002-89-5'
p6655
aS''
asS'760'
p6656
(lp6657
S'298-12-4'
p6658
aS'298-12-4'
p6659
aS''
asS'761'
p6660
(lp6661
S'85-32-5'
p6662
aS''
asS'2969'
p6663
(lp6664
S'334-48-5'
p6665
aS'334-48-5'
p6666
aS''
asS'2968'
p6667
(lp6668
S'156-74-1'
p6669
aS''
asS'7112'
p6670
(lp6671
S'92-88-6'
p6672
aS''
asS'7111'
p6673
(lp6674
S'92-87-5'
p6675
aS'92-87-5'
p6676
aS''
asS'5193'
p6677
(lp6678
S'76-73-3'
p6679
aS''
asS'7115'
p6680
(lp6681
S'92-94-4'
p6682
aS''
asS'7114'
p6683
(lp6684
S'92-93-3'
p6685
aS'92-93-3'
p6686
aS''
asS'7119'
p6687
(lp6688
S'93-04-9'
p6689
aS''
asS'5379'
p6690
(lp6691
S'112811-59-3'
p6692
aS''
asS'14801'
p6693
(lp6694
S'1313-13-9'
p6695
aS''
asS'1072'
p6696
(lp6697
S'83-88-5'
p6698
aS''
asS'14802'
p6699
(lp6700
S'1313-27-5'
p6701
aS''
asS'13007'
p6702
(lp6703
S'766-09-6'
p6704
aS''
asS'8924'
p6705
(lp6706
S'143-23-7'
p6707
aS''
asS'8923'
p6708
(lp6709
S'143-22-6'
p6710
aS''
asS'1676'
p6711
(lp6712
S'41078-02-8'
p6713
aS''
asS'1677'
p6714
(lp6715
S'13331-27-6'
p6716
aS''
asS'8083'
p6717
(lp6718
S'110-91-8'
p6719
aS'110-91-8'
p6720
aS'110-91-8'
p6721
aS''
asS'1672'
p6722
(lp6723
S'5332-73-0'
p6724
aS''
asS'14805'
p6725
(lp6726
S'1313-99-1'
p6727
aS''
asS'8221'
p6728
(lp6729
S'112-92-5'
p6730
aS''
asS'8223'
p6731
(lp6732
S'113-15-5'
p6733
aS''
asS'679'
p6734
(lp6735
S'67-68-5'
p6736
aS'67-68-5'
p6737
aS''
asS'8226'
p6738
(lp6739
S'113-42-8'
p6740
aS''
asS'6010'
p6741
(lp6742
S'58-18-4'
p6743
aS''
asS'674'
p6744
(lp6745
S'124-40-3'
p6746
aS'124-40-3'
p6747
aS'124-40-3'
p6748
aS''
asS'675'
p6749
(lp6750
S'582-60-5'
p6751
aS''
asS'4335'
p6752
(lp6753
S'15376-53-1'
p6754
aS''
asS'670'
p6755
(lp6756
S'96-26-4'
p6757
aS''
asS'6013'
p6758
(lp6759
S'58-22-0'
p6760
aS''
asS'7291'
p6761
(lp6762
S'96-27-5'
p6763
aS''
asS'854'
p6764
(lp6765
S'50-69-1'
p6766
aS''
asS'4649'
p6767
(lp6768
S'65-49-6'
p6769
aS''
asS'14584'
p6770
(lp6771
S'1209-98-9'
p6772
aS''
asS'7292'
p6773
(lp6774
S'96-29-7'
p6775
aS''
asS'7601'
p6776
(lp6777
S'102-20-5'
p6778
aS''
asS'4642'
p6779
(lp6780
S'125-53-1'
p6781
aS''
asS'6018'
p6782
(lp6783
S'58-46-8'
p6784
aS''
asS'4066'
p6785
(lp6786
S'29216-28-2'
p6787
aS''
asS'6397'
p6788
(lp6789
S'75-77-4'
p6790
aS''
asS'8343'
p6791
(lp6792
S'117-81-7'
p6793
aS'117-81-7'
p6794
aS'117-81-7'
p6795
aS''
asS'1480'
p6796
(lp6797
S'93-76-5'
p6798
aS'93-76-5'
p6799
aS''
asS'8139'
p6800
(lp6801
S'111-82-0'
p6802
aS''
asS'6901'
p6803
(lp6804
S'87-68-3'
p6805
aS'87-68-3'
p6806
aS''
asS'6456'
p6807
(lp6808
S'76-83-5'
p6809
aS''
asS'8134'
p6810
(lp6811
S'111-77-3'
p6812
aS''
asS'10024'
p6813
(lp6814
S'462-95-3'
p6815
aS''
asS'4201'
p6816
(lp6817
S'38304-91-5'
p6818
aS''
asS'8130'
p6819
(lp6820
S'111-71-7'
p6821
aS''
asS'6909'
p6822
(lp6823
S'87-90-1'
p6824
aS''
asS'4205'
p6825
(lp6826
S'61337-67-5'
p6827
aS''
asS'7668'
p6828
(lp6829
S'103-65-1'
p6830
aS''
asS'5568'
p6831
(lp6832
S'146-54-3'
p6833
aS''
asS'7892'
p6834
(lp6835
S'107-83-5'
p6836
aS'107-83-5'
p6837
aS''
asS'3118'
p6838
(lp6839
S'298-04-4'
p6840
aS'298-04-4'
p6841
aS''
asS'5564'
p6842
(lp6843
S'3380-34-5'
p6844
aS''
asS'5565'
p6845
(lp6846
S'112-24-3'
p6847
aS''
asS'5566'
p6848
(lp6849
S'117-89-5'
p6850
aS''
asS'5560'
p6851
(lp6852
S'133-67-5'
p6853
aS''
asS'12519'
p6854
(lp6855
S'638-21-1'
p6856
aS'638-21-1'
p6857
aS''
asS'1254'
p6858
(lp6859
S'1490-04-6'
p6860
aS''
asS'1253'
p6861
(lp6862
S'102518-79-6'
p6863
aS''
asS'7732'
p6864
(lp6865
S'104-94-9'
p6866
aS'104-94-9'
p6867
aS''
asS'7730'
p6868
(lp6869
S'104-92-7'
p6870
aS''
asS'7737'
p6871
(lp6872
S'105-11-3'
p6873
aS''
asS'7735'
p6874
(lp6875
S'105-08-8'
p6876
aS''
asS'7734'
p6877
(lp6878
S'105-05-5'
p6879
aS''
asS'3958'
p6880
(lp6881
S'846-49-1'
p6882
aS''
asS'300'
p6883
(lp6884
S'79-11-8'
p6885
aS''
asS'303'
p6886
(lp6887
S'81-25-4'
p6888
aS''
asS'3957'
p6889
(lp6890
S'79794-75-5'
p6891
aS''
asS'305'
p6892
(lp6893
S'62-49-7'
p6894
aS''
asS'3955'
p6895
(lp6896
S'53179-11-6'
p6897
aS''
asS'4116'
p6898
(lp6899
S'76-38-0'
p6900
aS'76-38-0'
p6901
aS'76-38-0'
p6902
aS''
asS'8359'
p6903
(lp6904
S'118-48-9'
p6905
aS''
asS'4114'
p6906
(lp6907
S'298-81-7'
p6908
aS''
asS'4115'
p6909
(lp6910
S'72-43-5'
p6911
aS'72-43-5'
p6912
aS''
asS'5304'
p6913
(lp6914
S'57-24-9'
p6915
aS'57-24-9'
p6916
aS''
asS'2256'
p6917
(lp6918
S'1912-24-9'
p6919
aS'1912-24-9'
p6920
aS''
asS'5709'
p6921
(lp6922
S'526-36-3'
p6923
aS''
asS'4474'
p6924
(lp6925
S'55985-32-5'
p6926
aS''
asS'7296'
p6927
(lp6928
S'96-37-7'
p6929
aS''
asS'8194'
p6930
(lp6931
S'112-54-9'
p6932
aS''
asS'11775'
p6933
(lp6934
S'603-34-9'
p6935
aS'603-34-9'
p6936
aS''
asS'8195'
p6937
(lp6938
S'112-55-0'
p6939
aS'112-55-0'
p6940
aS'112-55-0'
p6941
aS''
asS'7102'
p6942
(lp6943
S'92-67-1'
p6944
aS'92-67-1'
p6945
aS''
asS'12512'
p6946
(lp6947
S'637-92-3'
p6948
aS'637-92-3'
p6949
aS''
asS'7103'
p6950
(lp6951
S'92-69-3'
p6952
aS''
asS'7423'
p6953
(lp6954
S'99-09-2'
p6955
aS''
asS'7422'
p6956
(lp6957
S'99-08-1'
p6958
aS'99-08-1'
p6959
aS''
asS'7104'
p6960
(lp6961
S'92-70-6'
p6962
aS''
asS'11776'
p6963
(lp6964
S'603-35-0'
p6965
aS''
asS'6869'
p6966
(lp6967
S'87-08-1'
p6968
aS''
asS'7107'
p6969
(lp6970
S'11138-66-2'
p6971
aS''
asS'988'
p6972
(lp6973
S'79-83-4'
p6974
aS''
asS'2972'
p6975
(lp6976
S'30652-11-0'
p6977
aS''
asS'6606'
p6978
(lp6979
S'79-63-0'
p6980
aS''
asS'4062'
p6981
(lp6982
S'96-88-8'
p6983
aS''
asS'3055'
p6984
(lp6985
S'972-02-1'
p6986
aS''
asS'3052'
p6987
(lp6988
S'90-89-1'
p6989
aS''
asS'3899'
p6990
(lp6991
S'75706-12-6'
p6992
aS''
asS'5780'
p6993
(lp6994
S'50-70-4'
p6995
aS'50-70-4'
p6996
aS''
asS'983'
p6997
(lp6998
S'10380-08-2'
p6999
aS''
asS'5789'
p7000
(lp7001
S'3424-98-4'
p7002
aS'50-89-5'
p7003
aS''
asS'4890'
p7004
(lp7005
S'2955-38-6'
p7006
aS''
asS'3607'
p7007
(lp7008
S'141-94-6'
p7009
aS''
asS'3606'
p7010
(lp7011
S'84-16-2'
p7012
aS''
asS'3604'
p7013
(lp7014
S'60-26-4'
p7015
aS''
asS'4528'
p7016
(lp7017
S'24526-64-5'
p7018
aS''
asS'3609'
p7019
(lp7020
S'3215-70-1'
p7021
aS''
asS'3608'
p7022
(lp7023
S'56-29-1'
p7024
aS''
asS'6954'
p7025
(lp7026
S'88-89-1'
p7027
aS'88-89-1'
p7028
aS''
asS'984'
p7029
(lp7030
S'629-80-1'
p7031
aS''
asS'985'
p7032
(lp7033
S'57-10-3'
p7034
aS'57-10-3'
p7035
aS''
asS'3890'
p7036
(lp7037
S'130209-82-4'
p7038
aS''
asS'12749'
p7039
(lp7040
S'693-98-1'
p7041
aS''
asS'6115'
p7042
(lp7043
S'62-53-3'
p7044
aS'62-53-3'
p7045
aS'62-53-3'
p7046
aS'62-53-3'
p7047
aS''
asS'6116'
p7048
(lp7049
S'62-54-4'
p7050
aS'62-54-4'
p7051
aS''
asS'6112'
p7052
(lp7053
S'62-46-4'
p7054
aS''
asS'7877'
p7055
(lp7056
S'107-58-4'
p7057
aS''
asS'10927'
p7058
(lp7059
S'541-35-5'
p7060
aS''
asS'2352'
p7061
(lp7062
S'88430-50-6'
p7063
aS''
asS'2353'
p7064
(lp7065
S'2086-83-1'
p7066
aS''
asS'2350'
p7067
(lp7068
S'125602-71-3'
p7069
aS''
asS'10928'
p7070
(lp7071
S'541-41-3'
p7072
aS''
asS'2354'
p7073
(lp7074
S'536-71-0'
p7075
aS''
asS'7283'
p7076
(lp7077
S'96-15-1'
p7078
aS''
asS'7282'
p7079
(lp7080
S'96-14-0'
p7081
aS'96-14-0'
p7082
aS''
asS'7281'
p7083
(lp7084
S'96-13-9'
p7085
aS''
asS'7280'
p7086
(lp7087
S'96-12-8'
p7088
aS'96-12-8'
p7089
aS''
asS'7935'
p7090
(lp7091
S'108-45-2'
p7092
aS'108-45-2'
p7093
aS''
asS'7934'
p7094
(lp7095
S'108-44-1'
p7096
aS'108-44-1'
p7097
aS'108-44-1'
p7098
aS''
asS'7285'
p7099
(lp7100
S'96-18-4'
p7101
aS'96-18-4'
p7102
aS'96-18-4'
p7103
aS''
asS'7284'
p7104
(lp7105
S'96-17-3'
p7106
aS''
asS'7289'
p7107
(lp7108
S'96-23-1'
p7109
aS''
asS'7288'
p7110
(lp7111
S'96-22-0'
p7112
aS'96-22-0'
p7113
aS'96-22-0'
p7114
aS''
asS'7062'
p7115
(lp7116
S'91-68-9'
p7117
aS''
asS'13342'
p7118
(lp7119
S'865-21-4'
p7120
aS''
asS'3739'
p7121
(lp7122
S'606-17-7'
p7123
aS''
asS'3735'
p7124
(lp7125
S'96-83-3'
p7126
aS''
asS'3730'
p7127
(lp7128
S'66108-95-0'
p7129
aS''
asS'13583'
p7130
(lp7131
S'124-22-1'
p7132
aS''
asS'955'
p7133
(lp7134
S'27415-09-4'
p7135
aS''
asS'957'
p7136
(lp7137
S'111-87-5'
p7138
aS'68603-15-6'
p7139
aS''
asS'11726'
p7140
(lp7141
S'598-62-9'
p7142
aS''
asS'6029'
p7143
(lp7144
S'58-96-8'
p7145
aS''
asS'11722'
p7146
(lp7147
S'598-55-0'
p7148
aS''
asS'11723'
p7149
(lp7150
S'598-56-1'
p7151
aS''
asS'6021'
p7152
(lp7153
S'58-63-9'
p7154
aS''
asS'9550'
p7155
(lp7156
S'334-88-3'
p7157
aS'334-88-3'
p7158
aS''
asS'6024'
p7159
(lp7160
S'153-61-7'
p7161
aS''
asS'6318'
p7162
(lp7163
S'74-11-3'
p7164
aS''
asS'2786'
p7165
(lp7166
S'18323-44-9'
p7167
aS''
asS'2781'
p7168
(lp7169
S'15686-51-8'
p7170
aS''
asS'12364'
p7171
(lp7172
S'628-94-4'
p7173
aS''
asS'13308'
p7174
(lp7175
S'846-48-0'
p7176
aS''
asS'3420'
p7177
(lp7178
S'98048-97-6'
p7179
aS''
asS'6334'
p7180
(lp7181
S'68476-49-3'
p7182
aS'68920-07-0'
p7183
aS'69430-33-7'
p7184
aS'74-98-6'
p7185
aS'74-98-6'
p7186
aS'74-98-6'
p7187
aS''
asS'6335'
p7188
(lp7189
S'74-99-7'
p7190
aS'74-99-7'
p7191
aS'74-99-7'
p7192
aS''
asS'6337'
p7193
(lp7194
S'68411-72-3'
p7195
aS'75-00-3'
p7196
aS'75-00-3'
p7197
aS'75-00-3'
p7198
aS''
asS'12161'
p7199
(lp7200
S'622-97-9'
p7201
aS''
asS'12160'
p7202
(lp7203
S'622-96-8'
p7204
aS''
asS'12163'
p7205
(lp7206
S'623-03-0'
p7207
aS''
asS'6333'
p7208
(lp7209
S'74-97-5'
p7210
aS'74-97-5'
p7211
aS'74-97-5'
p7212
aS''
asS'4585'
p7213
(lp7214
S'132539-06-1'
p7215
aS''
asS'4584'
p7216
(lp7217
S'78111-17-8'
p7218
aS''
asS'6338'
p7219
(lp7220
S'75-01-4'
p7221
aS'9002-86-2'
p7222
aS'75-01-4'
p7223
aS'75-01-4'
p7224
aS''
asS'6339'
p7225
(lp7226
S'75-02-5'
p7227
aS'75-02-5'
p7228
aS'75-02-5'
p7229
aS''
asS'14917'
p7230
(lp7231
S'7664-39-3'
p7232
aS'7664-39-3'
p7233
aS'7664-39-3'
p7234
aS''
asS'14915'
p7235
(lp7236
S'1333-82-0'
p7237
aS''
asS'9677'
p7238
(lp7239
S'360-70-3'
p7240
aS''
asS'10457'
p7241
(lp7242
S'505-48-6'
p7243
aS''
asS'10101'
p7244
(lp7245
S'469-79-4'
p7246
aS''
asS'10100'
p7247
(lp7248
S'469-62-5'
p7249
aS''
asS'2481'
p7250
(lp7251
S'77-26-9'
p7252
aS''
asS'12059'
p7253
(lp7254
S'618-45-1'
p7255
aS''
asS'7095'
p7256
(lp7257
S'92-52-4'
p7258
aS'92-52-4'
p7259
aS'92-52-4'
p7260
aS''
asS'8158'
p7261
(lp7262
S'112-05-0'
p7263
aS'67762-36-1'
p7264
aS'68937-75-7'
p7265
aS''
asS'8909'
p7266
(lp7267
S'142-96-1'
p7268
aS''
asS'8908'
p7269
(lp7270
S'142-92-7'
p7271
aS''
asS'991'
p7272
(lp7273
S'56-38-2'
p7274
aS'56-38-2'
p7275
aS''
asS'8900'
p7276
(lp7277
S'142-82-5'
p7278
aS'142-82-5'
p7279
aS'142-82-5'
p7280
aS''
asS'13165'
p7281
(lp7282
S'818-61-1'
p7283
aS''
asS'14357'
p7284
(lp7285
S'1141-38-4'
p7286
aS'1141-38-4'
p7287
aS''
asS'7859'
p7288
(lp7289
S'107-19-7'
p7290
aS'107-19-7'
p7291
aS'107-19-7'
p7292
aS''
asS'713'
p7293
(lp7294
S'75-12-7'
p7295
aS'75-12-7'
p7296
aS'75-12-7'
p7297
aS''
asS'13344'
p7298
(lp7299
S'866-84-2'
p7300
aS''
asS'7129'
p7301
(lp7302
S'93-18-5'
p7303
aS''
asS'7124'
p7304
(lp7305
S'93-10-7'
p7306
aS''
asS'8623'
p7307
(lp7308
S'133-59-5'
p7309
aS''
asS'7122'
p7310
(lp7311
S'93-08-3'
p7312
aS''
asS'1068'
p7313
(lp7314
S'75-18-3'
p7315
aS''
asS'5300'
p7316
(lp7317
S'18883-66-4'
p7318
aS''
asS'1060'
p7319
(lp7320
S'127-17-3'
p7321
aS''
asS'1065'
p7322
(lp7323
S'130-95-0'
p7324
aS'56-54-2'
p7325
aS''
asS'1066'
p7326
(lp7327
S'89-00-9'
p7328
aS'89-00-9'
p7329
aS''
asS'6590'
p7330
(lp7331
S'79-31-2'
p7332
aS'79-31-2'
p7333
aS''
asS'6591'
p7334
(lp7335
S'79-34-5'
p7336
aS'79-34-5'
p7337
aS'79-34-5'
p7338
aS''
asS'6593'
p7339
(lp7340
S'79-36-7'
p7341
aS''
asS'6594'
p7342
(lp7343
S'79-38-9'
p7344
aS''
asS'10993'
p7345
(lp7346
S'928-96-1'
p7347
aS''
asS'6597'
p7348
(lp7349
S'79-43-6'
p7350
aS'79-43-6'
p7351
aS''
asS'6598'
p7352
(lp7353
S'79-44-7'
p7354
aS'79-44-7'
p7355
aS''
asS'4178'
p7356
(lp7357
S'31828-71-4'
p7358
aS''
asS'3140'
p7359
(lp7360
S'2379-57-9'
p7361
aS''
asS'14829'
p7362
(lp7363
S'1317-38-0'
p7364
aS''
asS'2828'
p7365
(lp7366
S'76-57-3'
p7367
aS''
asS'11535'
p7368
(lp7369
S'590-19-2'
p7370
aS''
asS'3386'
p7371
(lp7372
S'54910-89-3'
p7373
aS''
asS'7638'
p7374
(lp7375
S'103-16-2'
p7376
aS''
asS'3385'
p7377
(lp7378
S'51-21-8'
p7379
aS''
asS'3380'
p7380
(lp7381
S'1622-62-4'
p7382
aS''
asS'5413'
p7383
(lp7384
S'66-40-0'
p7385
aS''
asS'7620'
p7386
(lp7387
S'102-79-4'
p7388
aS''
asS'9086'
p7389
(lp7390
S'156-87-6'
p7391
aS''
asS'5793'
p7392
(lp7393
S'50-99-7'
p7394
aS''
asS'5790'
p7395
(lp7396
S'50-91-9'
p7397
aS''
asS'14775'
p7398
(lp7399
S'1304-56-9'
p7400
aS''
asS'6936'
p7401
(lp7402
S'88-53-9'
p7403
aS''
asS'6937'
p7404
(lp7405
S'88-60-8'
p7406
aS''
asS'9845'
p7407
(lp7408
S'407-25-0'
p7409
aS''
asS'9844'
p7410
(lp7411
S'406-90-6'
p7412
aS'406-90-6'
p7413
aS''
asS'5771'
p7414
(lp7415
S'50-56-6'
p7416
aS''
asS'5770'
p7417
(lp7418
S'50-55-5'
p7419
aS'50-55-5'
p7420
aS''
asS'8697'
p7421
(lp7422
S'149-57-5'
p7423
aS'149-57-5'
p7424
aS''
asS'8696'
p7425
(lp7426
S'136-52-7'
p7427
aS''
asS'5775'
p7428
(lp7429
S'50-60-2'
p7430
aS''
asS'8121'
p7431
(lp7432
S'111-55-7'
p7433
aS''
asS'14773'
p7434
(lp7435
S'1304-29-6'
p7436
aS''
asS'7705'
p7437
(lp7438
S'104-51-8'
p7439
aS''
asS'7703'
p7440
(lp7441
S'104-46-1'
p7442
aS''
asS'7701'
p7443
(lp7444
S'104-42-7'
p7445
aS''
asS'5577'
p7446
(lp7447
S'138-56-7'
p7448
aS''
asS'5576'
p7449
(lp7450
S'127-48-0'
p7451
aS''
asS'5574'
p7452
(lp7453
S'84-96-8'
p7454
aS''
asS'5572'
p7455
(lp7456
S'144-11-6'
p7457
aS''
asS'34'
p7458
(lp7459
S'107-07-3'
p7460
aS'107-07-3'
p7461
aS'107-07-3'
p7462
aS''
asS'641'
p7463
(lp7464
S'190079-18-6'
p7465
aS''
asS'640'
p7466
(lp7467
S'951-78-0'
p7468
aS''
asS'647'
p7469
(lp7470
S'358-72-5'
p7471
aS''
asS'646'
p7472
(lp7473
S'2564-35-4'
p7474
aS''
asS'648'
p7475
(lp7476
S'155-54-4'
p7477
aS''
asS'7616'
p7478
(lp7479
S'102-69-2'
p7480
aS''
asS'7617'
p7481
(lp7482
S'102-70-5'
p7483
aS''
asS'338'
p7484
(lp7485
S'69-72-7'
p7486
aS'69-72-7'
p7487
aS''
asS'8160'
p7488
(lp7489
S'112-07-2'
p7490
aS'112-07-2'
p7491
aS'112-07-2'
p7492
aS''
asS'335'
p7493
(lp7494
S'95-48-7'
p7495
aS'95-48-7'
p7496
aS'95-48-7'
p7497
aS''
asS'8007'
p7498
(lp7499
S'109-73-9'
p7500
aS'109-73-9'
p7501
aS'109-73-9'
p7502
aS'109-73-9'
p7503
aS''
asS'4101'
p7504
(lp7505
S'100-97-0'
p7506
aS''
asS'4100'
p7507
(lp7508
S'554-57-4'
p7509
aS''
asS'14778'
p7510
(lp7511
S'1305-78-8'
p7512
aS'1305-78-8'
p7513
aS'1305-78-8'
p7514
aS''
asS'4107'
p7515
(lp7516
S'532-03-6'
p7517
aS''
asS'4109'
p7518
(lp7519
S'16752-77-5'
p7520
aS'16752-77-5'
p7521
aS'16752-77-5'
p7522
aS''
asS'8346'
p7523
(lp7524
S'117-84-0'
p7525
aS''
asS'12560'
p7526
(lp7527
S'114-07-8'
p7528
aS''
asS'14457'
p7529
(lp7530
S'1185-57-5'
p7531
aS''
asS'7412'
p7532
(lp7533
S'98-88-4'
p7534
aS'98-88-4'
p7535
aS''
asS'7410'
p7536
(lp7537
S'98-86-2'
p7538
aS'98-86-2'
p7539
aS''
asS'7411'
p7540
(lp7541
S'29797-40-8'
p7542
aS'98-87-3'
p7543
aS''
asS'7416'
p7544
(lp7545
S'98-95-3'
p7546
aS'98-95-3'
p7547
aS'98-95-3'
p7548
aS''
asS'7415'
p7549
(lp7550
S'98-94-2'
p7551
aS''
asS'3893'
p7552
(lp7553
S'143-07-7'
p7554
aS''
asS'7418'
p7555
(lp7556
S'99-04-7'
p7557
aS''
asS'7419'
p7558
(lp7559
S'87980-11-8'
p7560
aS''
asS'12278'
p7561
(lp7562
S'626-38-0'
p7563
aS'626-38-0'
p7564
aS''
asS'3467'
p7565
(lp7566
S'1403-66-3'
p7567
aS''
asS'14456'
p7568
(lp7569
S'1185-55-3'
p7570
aS''
asS'6613'
p7571
(lp7572
S'79-83-4'
p7573
aS''
asS'12620'
p7574
(lp7575
S'30303-65-2'
p7576
aS'661-19-8'
p7577
aS''
asS'6610'
p7578
(lp7579
S'79-74-3'
p7580
aS''
asS'6616'
p7581
(lp7582
S'79-92-5'
p7583
aS''
asS'5773'
p7584
(lp7585
S'50-59-9'
p7586
aS''
asS'6618'
p7587
(lp7588
S'79-94-7'
p7589
aS''
asS'5951'
p7590
(lp7591
S'56-45-1'
p7592
aS'56-45-1'
p7593
aS''
asS'5953'
p7594
(lp7595
S'56-54-2'
p7596
aS''
asS'8652'
p7597
(lp7598
S'134-84-9'
p7599
aS''
asS'5954'
p7600
(lp7601
S'56-55-3'
p7602
aS''
asS'5957'
p7603
(lp7604
S'56-65-5'
p7605
aS''
asS'5956'
p7606
(lp7607
S'56-59-7'
p7608
aS''
asS'13765'
p7609
(lp7610
S'965-90-2'
p7611
aS''
asS'13762'
p7612
(lp7613
S'63449-41-2'
p7614
aS''
asS'3966'
p7615
(lp7616
S'90-39-1'
p7617
aS''
asS'3964'
p7618
(lp7619
S'1977-10-2'
p7620
aS''
asS'5794'
p7621
(lp7622
S'51-03-6'
p7623
aS''
asS'1023'
p7624
(lp7625
S'2466-09-3'
p7626
aS''
asS'3961'
p7627
(lp7628
S'114798-26-4'
p7629
aS''
asS'8895'
p7630
(lp7631
S'142-71-2'
p7632
aS''
asS'5798'
p7633
(lp7634
S'51-17-2'
p7635
aS''
asS'3639'
p7636
(lp7637
S'58-93-5'
p7638
aS''
asS'3637'
p7639
(lp7640
S'86-54-4'
p7641
aS''
asS'3374'
p7642
(lp7643
S'42835-25-6'
p7644
aS''
asS'8433'
p7645
(lp7646
S'120-46-7'
p7647
aS''
asS'8892'
p7648
(lp7649
S'142-62-1'
p7650
aS''
asS'6984'
p7651
(lp7652
S'89-72-5'
p7653
aS'89-72-5'
p7654
aS'89-72-5'
p7655
aS''
asS'8878'
p7656
(lp7657
S'142-19-8'
p7658
aS''
asS'848'
p7659
(lp7660
S'470-29-1'
p7661
aS''
asS'2345'
p7662
(lp7663
S'120-51-4'
p7664
aS'120-51-4'
p7665
aS''
asS'2347'
p7666
(lp7667
S'85-68-7'
p7668
aS''
asS'2341'
p7669
(lp7670
S'156-08-1'
p7671
aS''
asS'6109'
p7672
(lp7673
S'62-33-9'
p7674
aS'62-33-9'
p7675
aS''
asS'2342'
p7676
(lp7677
S'63-12-7'
p7678
aS''
asS'6106'
p7679
(lp7680
S'61-90-5'
p7681
aS'328-38-1'
p7682
aS'61-90-5'
p7683
aS''
asS'4955'
p7684
(lp7685
S'13367-85-6'
p7686
aS''
asS'6101'
p7687
(lp7688
S'104-15-4'
p7689
aS''
asS'13505'
p7690
(lp7691
S'915-30-0'
p7692
aS''
asS'7715'
p7693
(lp7694
S'104-68-7'
p7695
aS''
asS'8969'
p7696
(lp7697
S'146-48-5'
p7698
aS''
asS'9444'
p7699
(lp7700
S'320-67-2'
p7701
aS''
asS'7378'
p7702
(lp7703
S'98-19-1'
p7704
aS''
asS'13379'
p7705
(lp7706
S'68551-16-6'
p7707
aS''
asS'12329'
p7708
(lp7709
S'627-93-0'
p7710
aS''
asS'4668'
p7711
(lp7712
S'373-49-9'
p7713
aS'2091-29-4'
p7714
aS''
asS'13578'
p7715
(lp7716
S'929-06-6'
p7717
aS''
asS'948'
p7718
(lp7719
S'10024-97-2'
p7720
aS'10024-97-2'
p7721
aS'10024-97-2'
p7722
aS''
asS'4919'
p7723
(lp7724
S'77-37-2'
p7725
aS''
asS'4916'
p7726
(lp7727
S'72332-33-3'
p7728
aS''
asS'13571'
p7729
(lp7730
S'928-65-4'
p7731
aS''
asS'4913'
p7732
(lp7733
S'51-06-9'
p7734
aS''
asS'4911'
p7735
(lp7736
S'57-66-9'
p7737
aS''
asS'2564'
p7738
(lp7739
S'486-16-8'
p7740
aS''
asS'6032'
p7741
(lp7742
S'8063-07-8'
p7743
aS''
asS'11719'
p7744
(lp7745
S'598-50-5'
p7746
aS''
asS'6030'
p7747
(lp7748
S'58-97-9'
p7749
aS''
asS'2659'
p7750
(lp7751
S'55268-75-2'
p7752
aS''
asS'5755'
p7753
(lp7754
S'50-24-8'
p7755
aS''
asS'2650'
p7756
(lp7757
S'78439-06-2'
p7758
aS''
asS'137'
p7759
(lp7760
S'106-60-5'
p7761
aS''
asS'8023'
p7762
(lp7763
S'109-92-2'
p7764
aS''
asS'7381'
p7765
(lp7766
S'98-29-3'
p7767
aS''
asS'12374'
p7768
(lp7769
S'629-11-8'
p7770
aS'629-11-8'
p7771
aS''
asS'12376'
p7772
(lp7773
S'629-15-2'
p7774
aS''
asS'12377'
p7775
(lp7776
S'629-19-6'
p7777
aS''
asS'4614'
p7778
(lp7779
S'21256-18-8'
p7780
aS''
asS'4868'
p7781
(lp7782
S'1405-20-5'
p7783
aS''
asS'6324'
p7784
(lp7785
S'68475-58-1'
p7786
aS'74-84-0'
p7787
aS'74-84-0'
p7788
aS''
asS'10660'
p7789
(lp7790
S'523-87-5'
p7791
aS''
asS'6322'
p7792
(lp7793
S'74-79-3'
p7794
aS''
asS'6449'
p7795
(lp7796
S'76-58-4'
p7797
aS''
asS'10668'
p7798
(lp7799
S'524-84-5'
p7800
aS''
asS'6329'
p7801
(lp7802
S'74-89-5'
p7803
aS'74-89-5'
p7804
aS'74-89-5'
p7805
aS'74-89-5'
p7806
aS''
asS'9060'
p7807
(lp7808
S'153-94-6'
p7809
aS''
asS'14106'
p7810
(lp7811
S'1076-97-7'
p7812
aS''
asS'9068'
p7813
(lp7814
S'154-87-0'
p7815
aS''
asS'10280'
p7816
(lp7817
S'490-83-5'
p7818
aS''
asS'9667'
p7819
(lp7820
S'359-35-3'
p7821
aS''
asS'7005'
p7822
(lp7823
S'90-15-3'
p7824
aS''
asS'10112'
p7825
(lp7826
S'1317-65-3'
p7827
aS'471-34-1'
p7828
aS'471-34-1(synthetic)<br/>1317-65-3(natural)'
p7829
asS'10442'
p7830
(lp7831
S'504-63-2'
p7832
aS''
asS'6568'
p7833
(lp7834
S'78-92-2'
p7835
aS'78-92-2'
p7836
aS'78-92-2'
p7837
aS'78-92-2'
p7838
aS''
asS'3562'
p7839
(lp7840
S'151-67-7'
p7841
aS'151-67-7'
p7842
aS'151-67-7'
p7843
aS''
asS'5161'
p7844
(lp7845
S'552-94-3'
p7846
aS''
asS'7251'
p7847
(lp7848
S'95-69-2'
p7849
aS''
asS'7259'
p7850
(lp7851
S'95-78-3'
p7852
aS''
asS'4485'
p7853
(lp7854
S'21829-25-4'
p7855
aS''
asS'4488'
p7856
(lp7857
S'4394-00-7'
p7858
aS''
asS'13398'
p7859
(lp7860
S'873-94-9'
p7861
aS''
asS'8977'
p7862
(lp7863
S'146-91-8'
p7864
aS''
asS'2901'
p7865
(lp7866
S'52-52-8'
p7867
aS''
asS'7222'
p7868
(lp7869
S'95-16-9'
p7870
aS''
asS'2907'
p7871
(lp7872
S'50-18-0'
p7873
aS''
asS'2905'
p7874
(lp7875
S'512-15-2'
p7876
aS''
asS'2909'
p7877
(lp7878
S'59865-13-3'
p7879
aS''
asS'700'
p7880
(lp7881
S'141-43-5'
p7882
aS'141-43-5'
p7883
aS'141-43-5'
p7884
aS'141-43-5'
p7885
aS''
asS'702'
p7886
(lp7887
S'64-17-5'
p7888
aS'64-17-5'
p7889
aS'64-17-5'
p7890
aS'64-17-5'
p7891
aS''
asS'11883'
p7892
(lp7893
S'610-39-9'
p7894
aS''
asS'7007'
p7895
(lp7896
S'90-17-5'
p7897
aS''
asS'11885'
p7898
(lp7899
S'62813-37-0'
p7900
aS''
asS'7137'
p7901
(lp7902
S'93-29-8'
p7903
aS''
asS'7729'
p7904
(lp7905
S'104-91-6'
p7906
aS''
asS'5311'
p7907
(lp7908
S'149647-78-9'
p7909
aS''
asS'5314'
p7910
(lp7911
S'306-40-1'
p7912
aS''
asS'11120'
p7913
(lp7914
S'553-90-2'
p7915
aS''
asS'14928'
p7916
(lp7917
S'1338-41-6'
p7918
aS''
asS'586'
p7919
(lp7920
S'57-00-1'
p7921
aS''
asS'5238'
p7922
(lp7923
S'7681-82-5'
p7924
aS''
asS'6581'
p7925
(lp7926
S'79-10-7'
p7927
aS'79-10-7'
p7928
aS'9003-01-4'
p7929
aS'79-10-7'
p7930
aS'79-10-7'
p7931
aS''
asS'8758'
p7932
(lp7933
S'139-13-9'
p7934
aS''
asS'8759'
p7935
(lp7936
S'139-33-3'
p7937
aS''
asS'6585'
p7938
(lp7939
S'79-21-0'
p7940
aS''
asS'8209'
p7941
(lp7942
S'112-72-1'
p7943
aS'63393-82-8'
p7944
aS'67762-41-8'
p7945
aS'68855-56-1'
p7946
aS'71750-71-5'
p7947
aS'75782-87-5'
p7948
aS''
asS'8206'
p7949
(lp7950
S'112-67-4'
p7951
aS''
asS'8755'
p7952
(lp7953
S'139-08-2'
p7954
aS'68391-01-5'
p7955
aS'68424-85-1'
p7956
aS''
asS'6589'
p7957
(lp7958
S'79-29-8'
p7959
aS'79-29-8'
p7960
aS''
asS'6588'
p7961
(lp7962
S'79-27-6'
p7963
aS'79-27-6'
p7964
aS''
asS'8202'
p7965
(lp7966
S'112-62-9'
p7967
aS''
asS'11696'
p7968
(lp7969
S'597-09-1'
p7970
aS''
asS'8200'
p7971
(lp7972
S'112-60-7'
p7973
aS''
asS'8753'
p7974
(lp7975
S'139-07-1'
p7976
aS''
asS'7624'
p7977
(lp7978
S'102-87-4'
p7979
aS''
asS'11089'
p7980
(lp7981
S'552-30-7'
p7982
aS'552-30-7'
p7983
aS'552-30-7'
p7984
aS''
asS'3150'
p7985
(lp7986
S'14277-97-5'
p7987
aS''
asS'7621'
p7988
(lp7989
S'102-81-8'
p7990
aS'102-81-8'
p7991
aS'102-81-8'
p7992
aS''
asS'3156'
p7993
(lp7994
S'309-29-5'
p7995
aS''
asS'12996'
p7996
(lp7997
S'764-71-6'
p7998
aS''
asS'7622'
p7999
(lp8000
S'102-82-9'
p8001
aS''
asS'12998'
p8002
(lp8003
S'764-99-8'
p8004
aS''
asS'2309'
p8005
(lp8006
S'39552-01-7'
p8007
aS''
asS'2833'
p8008
(lp8009
S'64-86-8'
p8010
aS''
asS'7628'
p8011
(lp8012
S'10043-35-3'
p8013
aS''
asS'3393'
p8014
(lp8015
S'17617-23-1'
p8016
aS''
asS'5403'
p8017
(lp8018
S'23031-25-6'
p8019
aS''
asS'3394'
p8020
(lp8021
S'5104-49-4'
p8022
aS''
asS'5401'
p8023
(lp8024
S'63590-64-7'
p8025
aS''
asS'3396'
p8026
(lp8027
S'1841-19-6'
p8028
aS''
asS'4506'
p8029
(lp8030
S'146-22-5'
p8031
aS''
asS'13976'
p8032
(lp8033
S'1047-16-1'
p8034
aS''
asS'454'
p8035
(lp8036
S'124-13-0'
p8037
aS''
asS'3702'
p8038
(lp8039
S'26807-65-8'
p8040
aS''
asS'8119'
p8041
(lp8042
S'111-49-9'
p8043
aS''
asS'6928'
p8044
(lp8045
S'88-24-4'
p8046
aS''
asS'9878'
p8047
(lp8048
S'426-13-1'
p8049
aS''
asS'6925'
p8050
(lp8051
S'88-20-0'
p8052
aS''
asS'8113'
p8053
(lp8054
S'111-42-2'
p8055
aS'61791-44-4'
p8056
aS'61791-46-6'
p8057
aS'111-42-2'
p8058
aS'111-42-2'
p8059
aS''
asS'8110'
p8060
(lp8061
S'111-36-4'
p8062
aS''
asS'8111'
p8063
(lp8064
S'111-40-0'
p8065
aS'111-40-0'
p8066
aS'111-40-0'
p8067
aS''
asS'8117'
p8068
(lp8069
S'111-46-6'
p8070
aS''
asS'8114'
p8071
(lp8072
S'111-43-3'
p8073
aS''
asS'8115'
p8074
(lp8075
S'111-44-4'
p8076
aS'111-44-4'
p8077
aS'111-44-4'
p8078
aS''
asS'7719'
p8079
(lp8080
S'104-75-6'
p8081
aS''
asS'4845'
p8082
(lp8083
S'38677-81-5'
p8084
aS''
asS'5541'
p8085
(lp8086
S'102-76-1'
p8087
aS''
asS'4463'
p8088
(lp8089
S'129618-40-2'
p8090
aS''
asS'3089'
p8091
(lp8092
S'7456-24-8'
p8093
aS''
asS'4460'
p8094
(lp8095
S'56391-56-1'
p8096
aS''
asS'7127'
p8097
(lp8098
S'93-15-2'
p8099
aS''
asS'729'
p8100
(lp8101
S'142-10-9'
p8102
aS''
asS'3081'
p8103
(lp8104
S'695-53-4'
p8105
aS''
asS'3080'
p8106
(lp8107
S'59-52-9'
p8108
aS''
asS'8376'
p8109
(lp8110
S'118-96-7'
p8111
aS'118-96-7'
p8112
aS'118-96-7'
p8113
aS'118-96-7'
p8114
aS''
asS'8372'
p8115
(lp8116
S'118-82-1'
p8117
aS''
asS'8370'
p8118
(lp8119
S'118-74-1'
p8120
aS'118-74-1'
p8121
aS''
asS'8378'
p8122
(lp8123
S'119-04-0'
p8124
aS'1404-04-2'
p8125
aS''
asS'11239'
p8126
(lp8127
S'563-45-1'
p8128
aS''
asS'6830'
p8129
(lp8130
S'86-01-1'
p8131
aS''
asS'8572'
p8132
(lp8133
S'131-56-6'
p8134
aS''
asS'5897'
p8135
(lp8136
S'53-96-3'
p8137
aS'53-96-3'
p8138
aS''
asS'13807'
p8139
(lp8140
S'989-38-8'
p8141
aS''
asS'13806'
p8142
(lp8143
S'989-38-8'
p8144
aS''
asS'3883'
p8145
(lp8146
S'103577-45-3'
p8147
aS''
asS'12573'
p8148
(lp8149
S'644-97-3'
p8150
aS''
asS'949'
p8151
(lp8152
S'121-69-7'
p8153
aS'121-69-7'
p8154
aS'121-69-7'
p8155
aS''
asS'13575'
p8156
(lp8157
S'928-72-3'
p8158
aS''
asS'2826'
p8159
(lp8160
S'50-36-2'
p8161
aS''
asS'4917'
p8162
(lp8163
S'58-38-8'
p8164
aS''
asS'7405'
p8165
(lp8166
S'98-79-3'
p8167
aS''
asS'7407'
p8168
(lp8169
S'98-83-9'
p8170
aS'98-83-9'
p8171
aS'98-83-9'
p8172
aS''
asS'7406'
p8173
(lp8174
S'68333-89-1'
p8175
aS'68936-98-1'
p8176
aS'98-82-8'
p8177
aS'98-82-8'
p8178
aS'98-82-8'
p8179
aS''
asS'4914'
p8180
(lp8181
S'59-46-1'
p8182
aS''
asS'7403'
p8183
(lp8184
S'98-73-7'
p8185
aS''
asS'4915'
p8186
(lp8187
S'671-16-9'
p8188
aS''
asS'10531'
p8189
(lp8190
S'6190-39-2'
p8191
aS''
asS'189'
p8192
(lp8193
S'4985-36-8'
p8194
aS''
asS'7500'
p8195
(lp8196
S'100-41-4'
p8197
aS'100-41-4'
p8198
aS'100-41-4'
p8199
aS'100-41-4'
p8200
aS''
asS'943'
p8201
(lp8202
S'14797-55-8'
p8203
aS''
asS'2816'
p8204
(lp8205
S'24166-13-0'
p8206
aS''
asS'6291'
p8207
(lp8208
S'72-33-3'
p8209
aS''
asS'6629'
p8210
(lp8211
S'80-15-9'
p8212
aS''
asS'6626'
p8213
(lp8214
S'80-09-1'
p8215
aS''
asS'6627'
p8216
(lp8217
S'80-10-4'
p8218
aS''
asS'6625'
p8219
(lp8220
S'80-07-9'
p8221
aS''
asS'7641'
p8222
(lp8223
S'103-23-1'
p8224
aS''
asS'6623'
p8225
(lp8226
S'80-05-7'
p8227
aS''
asS'13711'
p8228
(lp8229
S'951-77-9'
p8230
aS''
asS'11816'
p8231
(lp8232
S'606-28-0'
p8233
aS''
asS'323'
p8234
(lp8235
S'91-64-5'
p8236
aS''
asS'9896'
p8237
(lp8238
S'432-60-0'
p8239
aS''
asS'326'
p8240
(lp8241
S'122-03-2'
p8242
aS''
asS'6529'
p8243
(lp8244
S'78-32-0'
p8245
aS''
asS'9782'
p8246
(lp8247
S'378-44-9'
p8248
aS''
asS'6388'
p8249
(lp8250
S'75-68-3'
p8251
aS''
asS'2818'
p8252
(lp8253
S'5786-21-0'
p8254
aS''
asS'7647'
p8255
(lp8256
S'103-29-7'
p8257
aS''
asS'3366'
p8258
(lp8259
S'2022-85-7'
p8260
aS''
asS'6031'
p8261
(lp8262
S'58-98-0'
p8263
aS''
asS'13627'
p8264
(lp8265
S'934-74-7'
p8266
aS''
asS'6132'
p8267
(lp8268
S'63-38-7'
p8269
aS''
asS'6133'
p8270
(lp8271
S'63-39-8'
p8272
aS''
asS'13629'
p8273
(lp8274
S'934-80-5'
p8275
aS''
asS'10949'
p8276
(lp8277
S'542-02-9'
p8278
aS''
asS'10943'
p8279
(lp8280
S'541-73-1'
p8281
aS''
asS'3050'
p8282
(lp8283
S'3762-25-2'
p8284
aS''
asS'3715'
p8285
(lp8286
S'53-86-1'
p8287
aS''
asS'8142'
p8288
(lp8289
S'111-85-3'
p8290
aS''
asS'14253'
p8291
(lp8292
S'15015-81-3'
p8293
aS''
asS'3718'
p8294
(lp8295
S'31842-01-0'
p8296
aS''
asS'13360'
p8297
(lp8298
S'868-77-9'
p8299
aS''
asS'6006'
p8300
(lp8301
S'1492-18-8'
p8302
aS'58-05-9'
p8303
aS''
asS'4908'
p8304
(lp8305
S'90-34-6'
p8306
aS''
asS'947'
p8307
(lp8308
S'7727-37-9'
p8309
aS''
asS'4679'
p8310
(lp8311
S'102625-70-7'
p8312
aS''
asS'2950'
p8313
(lp8314
S'117-10-2'
p8315
aS''
asS'13563'
p8316
(lp8317
S'927-62-8'
p8318
aS''
asS'6009'
p8319
(lp8320
S'58-15-1'
p8321
aS''
asS'7644'
p8322
(lp8323
S'103-26-4'
p8324
aS''
asS'8004'
p8325
(lp8326
S'109-67-1'
p8327
aS'25377-72-4'
p8328
aS'68814-91-5'
p8329
aS''
asS'7996'
p8330
(lp8331
S'109-59-1'
p8332
aS'109-59-1'
p8333
aS''
asS'14708'
p8334
(lp8335
S'1239-29-8'
p8336
aS''
asS'3245'
p8337
(lp8338
S'10402-90-1'
p8339
aS''
asS'5760'
p8340
(lp8341
S'50-36-2'
p8342
aS''
asS'9270'
p8343
(lp8344
S'297-76-7'
p8345
aS''
asS'944'
p8346
(lp8347
S'68412-17-9'
p8348
aS'7697-37-2'
p8349
aS'7697-37-2'
p8350
aS'7697-37-2'
p8351
aS''
asS'7397'
p8352
(lp8353
S'98-59-9'
p8354
aS''
asS'996'
p8355
(lp8356
S'108-95-2'
p8357
aS'108-95-2'
p8358
aS'108-95-2'
p8359
aS'108-95-2'
p8360
aS''
asS'9274'
p8361
(lp8362
S'298-06-6'
p8363
aS''
asS'9275'
p8364
(lp8365
S'298-07-7'
p8366
aS''
asS'7393'
p8367
(lp8368
S'98-54-4'
p8369
aS''
asS'992'
p8370
(lp8371
S'87-86-5'
p8372
aS'87-86-5'
p8373
aS'87-86-5'
p8374
aS''
asS'6777'
p8375
(lp8376
S'84-61-7'
p8377
aS''
asS'10724'
p8378
(lp8379
S'529-34-0'
p8380
aS''
asS'999'
p8381
(lp8382
S'103-82-2'
p8383
aS''
asS'998'
p8384
(lp8385
S'122-78-1'
p8386
aS''
asS'6595'
p8387
(lp8388
S'79-39-0'
p8389
aS''
asS'4768'
p8390
(lp8391
S'59-96-1'
p8392
aS''
asS'3403'
p8393
(lp8394
S'93957-54-1'
p8395
aS''
asS'3404'
p8396
(lp8397
S'54739-18-3'
p8398
aS''
asS'3407'
p8399
(lp8400
S'18053-31-1'
p8401
aS''
asS'3406'
p8402
(lp8403
S'7554-65-6'
p8404
aS''
asS'1021'
p8405
(lp8406
S'487-90-1'
p8407
aS''
asS'5761'
p8408
(lp8409
S'50-37-3'
p8410
aS''
asS'4875'
p8411
(lp8412
S'7681-11-0'
p8413
aS'7681-11-0'
p8414
aS''
asS'12389'
p8415
(lp8416
S'90622-46-1'
p8417
aS'629-59-4'
p8418
aS''
asS'4870'
p8419
(lp8420
S'346-18-9'
p8421
aS''
asS'4873'
p8422
(lp8423
S'7447-40-7'
p8424
aS'7447-40-7'
p8425
aS''
asS'7956'
p8426
(lp8427
S'108-80-5'
p8428
aS''
asS'5078'
p8429
(lp8430
S'145202-66-0'
p8431
aS''
asS'10617'
p8432
(lp8433
S'519-95-9'
p8434
aS''
asS'10698'
p8435
(lp8436
S'527-60-6'
p8437
aS''
asS'13493'
p8438
(lp8439
S'911-65-9'
p8440
aS''
asS'942'
p8441
(lp8442
S'54-11-5'
p8443
aS'54-11-5'
p8444
aS'54-11-5'
p8445
aS''
asS'2795'
p8446
(lp8447
S'791-35-5'
p8448
aS''
asS'14110'
p8449
(lp8450
S'1077-56-1'
p8451
aS''
asS'3372'
p8452
(lp8453
S'69-23-8'
p8454
aS''
asS'10439'
p8455
(lp8456
S'504-29-0'
p8457
aS'504-29-0'
p8458
aS''
asS'10129'
p8459
(lp8460
S'473-55-2'
p8461
aS''
asS'9651'
p8462
(lp8463
S'357-70-0'
p8464
aS''
asS'10690'
p8465
(lp8466
S'526-95-4'
p8467
aS''
asS'9071'
p8468
(lp8469
S'155-04-4'
p8470
aS''
asS'10430'
p8471
(lp8472
S'503-74-2'
p8473
aS''
asS'9300'
p8474
(lp8475
S'299-86-5'
p8476
aS'299-86-5'
p8477
aS''
asS'10434'
p8478
(lp8479
S'504-02-9'
p8480
aS''
asS'13140'
p8481
(lp8482
S'814-68-6'
p8483
aS''
asS'13149'
p8484
(lp8485
S'814-94-8'
p8486
aS''
asS'5092'
p8487
(lp8488
S'61413-54-5'
p8489
aS''
asS'5095'
p8490
(lp8491
S'91374-21-9'
p8492
aS''
asS'7249'
p8493
(lp8494
S'95-65-8'
p8495
aS''
asS'8988'
p8496
(lp8497
S'344-25-2'
p8498
aS''
asS'13387'
p8499
(lp8500
S'872-50-4'
p8501
aS''
asS'13381'
p8502
(lp8503
S'872-05-9'
p8504
aS'68037-01-4'
p8505
aS''
asS'5327'
p8506
(lp8507
S'57-68-1'
p8508
aS''
asS'5325'
p8509
(lp8510
S'127-79-7'
p8511
aS''
asS'5322'
p8512
(lp8513
S'17784-12-2'
p8514
aS''
asS'5323'
p8515
(lp8516
S'122-11-2'
p8517
aS''
asS'12101'
p8518
(lp8519
S'620-17-7'
p8520
aS''
asS'11635'
p8521
(lp8522
S'593-45-3'
p8523
aS''
asS'7561'
p8524
(lp8525
S'101-43-9'
p8526
aS''
asS'8186'
p8527
(lp8528
S'112-44-7'
p8529
aS''
asS'12647'
p8530
(lp8531
S'672-15-1'
p8532
aS''
asS'14935'
p8533
(lp8534
S'1341-49-7'
p8535
aS''
asS'13032'
p8536
(lp8537
S'768-52-5'
p8538
aS'768-52-5'
p8539
aS''
asS'8219'
p8540
(lp8541
S'112-90-3'
p8542
aS''
asS'8078'
p8543
(lp8544
S'110-82-7'
p8545
aS'110-82-7'
p8546
aS'110-82-7'
p8547
aS'110-82-7'
p8548
aS''
asS'8211'
p8549
(lp8550
S'112-75-4'
p8551
aS''
asS'8210'
p8552
(lp8553
S'112-73-2'
p8554
aS''
asS'8213'
p8555
(lp8556
S'112-82-3'
p8557
aS''
asS'8215'
p8558
(lp8559
S'112-85-6'
p8560
aS''
asS'8214'
p8561
(lp8562
S'112-84-5'
p8563
aS''
asS'8217'
p8564
(lp8565
S'112-88-9'
p8566
aS'27070-58-2'
p8567
aS'68855-60-7'
p8568
aS''
asS'8216'
p8569
(lp8570
S'112-86-7'
p8571
aS''
asS'2809'
p8572
(lp8573
S'23887-31-2'
p8574
aS''
asS'7654'
p8575
(lp8576
S'103-45-7'
p8577
aS''
asS'7656'
p8578
(lp8579
S'103-49-1'
p8580
aS''
asS'2802'
p8581
(lp8582
S'1622-61-3'
p8583
aS''
asS'2803'
p8584
(lp8585
S'4205-90-7'
p8586
aS''
asS'2800'
p8587
(lp8588
S'911-45-5'
p8589
aS''
asS'2801'
p8590
(lp8591
S'303-49-1'
p8592
aS''
asS'3162'
p8593
(lp8594
S'469-21-6'
p8595
aS''
asS'6490'
p8596
(lp8597
S'25265-77-4'
p8598
aS''
asS'6327'
p8599
(lp8600
S'74-87-3'
p8601
aS'74-87-3'
p8602
aS'74-87-3'
p8603
aS''
asS'5430'
p8604
(lp8605
S'148-79-8'
p8606
aS''
asS'3369'
p8607
(lp8608
S'3900-31-0'
p8609
aS''
asS'6326'
p8610
(lp8611
S'74-86-2'
p8612
aS'74-86-2'
p8613
aS'74-86-2'
p8614
aS''
asS'8178'
p8615
(lp8616
S'112-35-6'
p8617
aS''
asS'938'
p8618
(lp8619
S'59-67-6'
p8620
aS'59-67-6'
p8621
aS''
asS'737'
p8622
(lp8623
S'10139-18-1'
p8624
aS''
asS'736'
p8625
(lp8626
S'90-80-2'
p8627
aS'90-80-2'
p8628
aS''
asS'6323'
p8629
(lp8630
S'74-83-9'
p8631
aS'74-83-9'
p8632
aS'74-83-9'
p8633
aS''
asS'12720'
p8634
(lp8635
S'689-97-4'
p8636
aS''
asS'4055'
p8637
(lp8638
S'58-27-5'
p8639
aS''
asS'6498'
p8640
(lp8641
S'77-79-2'
p8642
aS''
asS'9681'
p8643
(lp8644
S'361-37-5'
p8645
aS''
asS'5440'
p8646
(lp8647
S'1420-55-9'
p8648
aS''
asS'4054'
p8649
(lp8650
S'19982-08-2'
p8651
aS''
asS'6950'
p8652
(lp8653
S'88-85-7'
p8654
aS''
asS'8179'
p8655
(lp8656
S'112-36-7'
p8657
aS''
asS'9863'
p8658
(lp8659
S'409-21-2'
p8660
aS'409-21-2'
p8661
aS'409-21-2'
p8662
aS''
asS'9862'
p8663
(lp8664
S'409-02-9'
p8665
aS''
asS'9864'
p8666
(lp8667
S'420-04-2'
p8668
aS'420-04-2'
p8669
aS'420-04-2'
p8670
aS'420-04-2'
p8671
aS''
asS'11208'
p8672
(lp8673
S'558-30-5'
p8674
aS''
asS'6328'
p8675
(lp8676
S'74-88-4'
p8677
aS'74-88-4'
p8678
aS'74-88-4'
p8679
aS''
asS'8361'
p8680
(lp8681
S'118-55-8'
p8682
aS''
asS'8360'
p8683
(lp8684
S'118-52-5'
p8685
aS'118-52-5'
p8686
aS''
asS'8363'
p8687
(lp8688
S'118-58-1'
p8689
aS''
asS'13662'
p8690
(lp8691
S'941-69-5'
p8692
aS''
asS'8365'
p8693
(lp8694
S'118-61-6'
p8695
aS''
asS'5526'
p8696
(lp8697
S'1197-18-8'
p8698
aS''
asS'8367'
p8699
(lp8700
S'2235-90-7'
p8701
aS''
asS'5381'
p8702
(lp8703
S'118292-40-3'
p8704
aS''
asS'4754'
p8705
(lp8706
S'62-44-2'
p8707
aS''
asS'8567'
p8708
(lp8709
S'6284-40-8'
p8710
aS''
asS'5881'
p8711
(lp8712
S'53-43-0'
p8713
aS''
asS'12544'
p8714
(lp8715
S'640-79-9'
p8716
aS''
asS'6556'
p8717
(lp8718
S'78-78-4'
p8719
aS'78-78-4'
p8720
aS''
asS'6557'
p8721
(lp8722
S'78-79-5'
p8723
aS''
asS'280'
p8724
(lp8725
S'124-38-9'
p8726
aS'124-38-9'
p8727
aS'124-38-9'
p8728
aS''
asS'6552'
p8729
(lp8730
S'78-73-9'
p8731
aS''
asS'6862'
p8732
(lp8733
S'86-87-3'
p8734
aS''
asS'6558'
p8735
(lp8736
S'78-81-9'
p8737
aS''
asS'6559'
p8738
(lp8739
S'78-82-0'
p8740
aS'78-82-0'
p8741
aS'78-82-0'
p8742
aS''
asS'12347'
p8743
(lp8744
S'628-61-5'
p8745
aS''
asS'7478'
p8746
(lp8747
S'100-09-4'
p8748
aS''
asS'3182'
p8749
(lp8750
S'479-18-5'
p8751
aS''
asS'7470'
p8752
(lp8753
S'99-94-5'
p8754
aS''
asS'7471'
p8755
(lp8756
S'99-97-8'
p8757
aS''
asS'7473'
p8758
(lp8759
S'99-99-0'
p8760
aS'99-99-0'
p8761
aS'99-99-0'
p8762
aS''
asS'7474'
p8763
(lp8764
S'100-00-5'
p8765
aS'100-00-5'
p8766
aS''
asS'5248'
p8767
(lp8768
S'1191-50-0'
p8769
aS''
asS'3397'
p8770
(lp8771
S'13311-84-7'
p8772
aS''
asS'11552'
p8773
(lp8774
S'590-86-3'
p8775
aS''
asS'7026'
p8776
(lp8777
S'90-72-2'
p8778
aS''
asS'6631'
p8779
(lp8780
S'58985-18-5'
p8781
aS''
asS'11177'
p8782
(lp8783
S'557-04-0'
p8784
aS''
asS'11846'
p8785
(lp8786
S'608-31-1'
p8787
aS''
asS'11392'
p8788
(lp8789
S'581-89-5'
p8790
aS'581-89-5'
p8791
aS''
asS'7505'
p8792
(lp8793
S'100-47-0'
p8794
aS''
asS'7506'
p8795
(lp8796
S'100-48-1'
p8797
aS''
asS'9883'
p8798
(lp8799
S'428-59-1'
p8800
aS''
asS'7501'
p8801
(lp8802
S'100-42-5'
p8803
aS'100-42-5'
p8804
aS'100-42-5'
p8805
aS''
asS'7502'
p8806
(lp8807
S'100-43-6'
p8808
aS''
asS'9880'
p8809
(lp8810
S'427-51-0'
p8811
aS''
asS'4420'
p8812
(lp8813
S'300-76-5'
p8814
aS'300-76-5'
p8815
aS''
asS'9700'
p8816
(lp8817
S'365-07-1'
p8818
aS''
asS'3102'
p8819
(lp8820
S'119-61-9'
p8821
aS'119-61-9'
p8822
aS''
asS'6129'
p8823
(lp8824
S'63-25-2'
p8825
aS'63-25-2'
p8826
aS''
asS'6128'
p8827
(lp8828
S'63-05-8'
p8829
aS''
asS'2793'
p8830
(lp8831
S'47739-98-0'
p8832
aS''
asS'2329'
p8833
(lp8834
S'37106-97-1'
p8835
aS''
asS'7372'
p8836
(lp8837
S'98-13-5'
p8838
aS''
asS'289'
p8839
(lp8840
S'120-80-9'
p8841
aS'120-80-9'
p8842
aS'120-80-9'
p8843
aS'120-80-9'
p8844
aS''
asS'288'
p8845
(lp8846
S'461-06-3'
p8847
aS''
asS'10958'
p8848
(lp8849
S'542-56-3'
p8850
aS''
asS'281'
p8851
(lp8852
S'630-08-0'
p8853
aS'630-08-0'
p8854
aS'630-08-0'
p8855
aS''
asS'10953'
p8856
(lp8857
S'542-28-9'
p8858
aS''
asS'14061'
p8859
(lp8860
S'1071-22-3'
p8861
aS''
asS'285'
p8862
(lp8863
S'2921-14-4'
p8864
aS''
asS'286'
p8865
(lp8866
S'2921-14-4'
p8867
aS''
asS'3760'
p8868
(lp8869
S'27523-40-6'
p8870
aS''
asS'3762'
p8871
(lp8872
S'530-08-5'
p8873
aS''
asS'3763'
p8874
(lp8875
S'26675-46-7'
p8876
aS''
asS'7255'
p8877
(lp8878
S'95-74-9'
p8879
aS''
asS'263'
p8880
(lp8881
S'71-36-3'
p8882
aS'71-36-3'
p8883
aS'71-36-3'
p8884
aS'71-36-3'
p8885
aS''
asS'261'
p8886
(lp8887
S'123-72-8'
p8888
aS''
asS'3561'
p8889
(lp8890
S'777-11-7'
p8891
aS''
asS'264'
p8892
(lp8893
S'107-92-6'
p8894
aS'107-92-6'
p8895
aS''
asS'6011'
p8896
(lp8897
S'58-19-5'
p8898
aS''
asS'13522'
p8899
(lp8900
S'919-31-3'
p8901
aS''
asS'6108'
p8902
(lp8903
S'62-23-7'
p8904
aS''
asS'8876'
p8905
(lp8906
S'142-16-5'
p8907
aS''
asS'13556'
p8908
(lp8909
S'926-57-8'
p8910
aS''
asS'3242'
p8911
(lp8912
S'18694-40-1'
p8913
aS''
asS'7896'
p8914
(lp8915
S'107-88-0'
p8916
aS'107-88-0'
p8917
aS''
asS'7897'
p8918
(lp8919
S'107-89-1'
p8920
aS''
asS'7895'
p8921
(lp8922
S'107-87-9'
p8923
aS'107-87-9'
p8924
aS'107-87-9'
p8925
aS''
asS'3241'
p8926
(lp8927
S'80012-43-7'
p8928
aS''
asS'13527'
p8929
(lp8930
S'919-94-8'
p8931
aS''
asS'2477'
p8932
(lp8933
S'36505-84-7'
p8934
aS''
asS'2475'
p8935
(lp8936
S'23284-25-5'
p8937
aS''
asS'2474'
p8938
(lp8939
S'2180-92-9'
p8940
aS''
asS'2471'
p8941
(lp8942
S'28395-03-1'
p8943
aS''
asS'10041'
p8944
(lp8945
S'463-82-1'
p8946
aS'463-82-1'
p8947
aS''
asS'6000'
p8948
(lp8949
S'6989-98-6'
p8950
aS''
asS'2479'
p8951
(lp8952
S'125-40-6'
p8953
aS''
asS'2478'
p8954
(lp8955
S'55-98-1'
p8956
aS''
asS'6766'
p8957
(lp8958
S'84-15-1'
p8959
aS''
asS'7870'
p8960
(lp8961
S'107-41-5'
p8962
aS'107-41-5'
p8963
aS'107-41-5'
p8964
aS''
asS'7872'
p8965
(lp8966
S'107-47-1'
p8967
aS''
asS'7873'
p8968
(lp8969
S'107-49-3'
p8970
aS'107-49-3'
p8971
aS''
asS'7879'
p8972
(lp8973
S'107-64-2'
p8974
aS''
asS'2784'
p8975
(lp8976
S'7020-55-5'
p8977
aS''
asS'2787'
p8978
(lp8979
S'30299-08-2'
p8980
aS''
asS'13529'
p8981
(lp8982
S'920-66-1'
p8983
aS''
asS'6535'
p8984
(lp8985
S'78-40-0'
p8986
aS''
asS'2783'
p8987
(lp8988
S'37148-27-9'
p8989
aS''
asS'12397'
p8990
(lp8991
S'629-76-5'
p8992
aS''
asS'12395'
p8993
(lp8994
S'629-73-2'
p8995
aS'26952-14-7'
p8996
aS''
asS'2789'
p8997
(lp8998
S'22316-47-8'
p8999
aS''
asS'12393'
p9000
(lp9001
S'629-70-9'
p9002
aS''
asS'12391'
p9003
(lp9004
S'629-62-9'
p9005
aS''
asS'11604'
p9006
(lp9007
S'592-51-8'
p9008
aS''
asS'10601'
p9009
(lp9010
S'517-23-7'
p9011
aS''
asS'11601'
p9012
(lp9013
S'68526-52-3'
p9014
aS''
asS'10607'
p9015
(lp9016
S'518-28-5'
p9017
aS''
asS'6305'
p9018
(lp9019
S'73-22-3'
p9020
aS'153-94-6'
p9021
aS''
asS'6307'
p9022
(lp9023
S'73-49-4'
p9024
aS''
asS'6306'
p9025
(lp9026
S'73-32-5'
p9027
aS''
asS'14126'
p9028
(lp9029
S'68608-80-0'
p9030
aS''
asS'9648'
p9031
(lp9032
S'357-56-2'
p9033
aS''
asS'9318'
p9034
(lp9035
S'301-10-0'
p9036
aS''
asS'9317'
p9037
(lp9038
S'301-04-2'
p9039
aS''
asS'9642'
p9040
(lp9041
S'356-12-7'
p9042
aS''
asS'7272'
p9043
(lp9044
S'95-96-5'
p9045
aS''
asS'8954'
p9046
(lp9047
S'144-75-2'
p9048
aS''
asS'7276'
p9049
(lp9050
S'96-09-3'
p9051
aS''
asS'7277'
p9052
(lp9053
S'96-10-6'
p9054
aS''
asS'7274'
p9055
(lp9056
S'96-05-9'
p9057
aS''
asS'8550'
p9058
(lp9059
S'131-01-1'
p9060
aS''
asS'8551'
p9061
(lp9062
S'131-08-8'
p9063
aS''
asS'9794'
p9064
(lp9065
S'383-63-1'
p9066
aS''
asS'2678'
p9067
(lp9068
S'83881-51-0'
p9069
aS''
asS'6833'
p9070
(lp9071
S'86-14-6'
p9072
aS''
asS'6832'
p9073
(lp9074
S'86-13-5'
p9075
aS''
asS'6834'
p9076
(lp9077
S'86-22-6'
p9078
aS''
asS'8413'
p9079
(lp9080
S'119-93-7'
p9081
aS'119-93-7'
p9082
aS'119-93-7'
p9083
aS''
asS'5335'
p9084
(lp9085
S'526-08-9'
p9086
aS''
asS'10553'
p9087
(lp9088
S'513-35-9'
p9089
aS''
asS'5336'
p9090
(lp9091
S'144-83-2'
p9092
aS'144-83-2'
p9093
aS''
asS'1986'
p9094
(lp9095
S'59-66-5'
p9096
aS''
asS'1983'
p9097
(lp9098
S'103-90-2'
p9099
aS'103-90-2'
p9100
aS''
asS'3415'
p9101
(lp9102
S'63585-09-1'
p9103
aS''
asS'10917'
p9104
(lp9105
S'541-15-1'
p9106
aS''
asS'1639'
p9107
(lp9108
S'61-82-5'
p9109
aS'61-82-5'
p9110
aS''
asS'3219'
p9111
(lp9112
S'87233-61-2'
p9113
aS''
asS'1989'
p9114
(lp9115
S'968-81-0'
p9116
aS''
asS'11674'
p9117
(lp9118
S'594-72-9'
p9119
aS'594-72-9'
p9120
aS''
asS'8821'
p9121
(lp9122
S'140-88-5'
p9123
aS'140-88-5'
p9124
aS'140-88-5'
p9125
aS''
asS'8827'
p9126
(lp9127
S'140-95-4'
p9128
aS''
asS'8779'
p9129
(lp9130
S'140-01-2'
p9131
aS''
asS'2811'
p9132
(lp9133
S'33671-46-4'
p9134
aS''
asS'12418'
p9135
(lp9136
S'630-20-6'
p9137
aS'630-20-6'
p9138
aS'630-20-6'
p9139
aS''
asS'8772'
p9140
(lp9141
S'139-89-9'
p9142
aS''
asS'2368'
p9143
(lp9144
S'55-73-2'
p9145
aS''
asS'564'
p9146
(lp9147
S'60-32-2'
p9148
aS''
asS'8777'
p9149
(lp9150
S'139-96-8'
p9151
aS''
asS'12902'
p9152
(lp9153
S'732-26-3'
p9154
aS''
asS'14257'
p9155
(lp9156
S'1120-21-4'
p9157
aS''
asS'12974'
p9158
(lp9159
S'760-93-0'
p9160
aS''
asS'703'
p9161
(lp9162
S'146-14-5'
p9163
aS''
asS'7589'
p9164
(lp9165
S'101-96-2'
p9166
aS''
asS'5429'
p9167
(lp9168
S'83-67-0'
p9169
aS''
asS'1188'
p9170
(lp9171
S'69-89-6'
p9172
aS''
asS'3373'
p9173
(lp9174
S'78755-81-4'
p9175
aS''
asS'1183'
p9176
(lp9177
S'121-33-5'
p9178
aS''
asS'3371'
p9179
(lp9180
S'530-78-9'
p9181
aS''
asS'13192'
p9182
(lp9183
S'822-06-0'
p9184
aS'822-06-0'
p9185
aS'822-06-0'
p9186
aS''
asS'727'
p9187
(lp9188
S'58-89-9'
p9189
aS'58-89-9'
p9190
aS'58-89-9'
p9191
aS''
asS'9017'
p9192
(lp9193
S'150-84-5'
p9194
aS''
asS'135'
p9195
(lp9196
S'99-96-7'
p9197
aS''
asS'2361'
p9198
(lp9199
S'6051-87-2'
p9200
aS''
asS'1486'
p9201
(lp9202
S'94-75-7'
p9203
aS'94-75-7'
p9204
aS'94-75-7'
p9205
aS''
asS'8170'
p9206
(lp9207
S'112-25-4'
p9208
aS''
asS'8171'
p9209
(lp9210
S'112-26-5'
p9211
aS''
asS'8172'
p9212
(lp9213
S'112-27-6'
p9214
aS''
asS'8174'
p9215
(lp9216
S'112-30-1'
p9217
aS'66455-17-2'
p9218
aS'85566-12-7'
p9219
aS''
asS'8175'
p9220
(lp9221
S'112-31-2'
p9222
aS''
asS'7293'
p9223
(lp9224
S'96-31-1'
p9225
aS''
asS'7582'
p9226
(lp9227
S'101-83-7'
p9228
aS''
asS'5994'
p9229
(lp9230
S'57-83-0'
p9231
aS''
asS'6943'
p9232
(lp9233
S'88-69-7'
p9234
aS''
asS'7922'
p9235
(lp9236
S'108-30-5'
p9237
aS'68412-02-2'
p9238
aS'68784-12-3'
p9239
aS''
asS'7583'
p9240
(lp9241
S'101-84-8'
p9242
aS'101-84-8'
p9243
aS'101-84-8'
p9244
aS''
asS'6947'
p9245
(lp9246
S'88-75-5'
p9247
aS''
asS'6945'
p9248
(lp9249
S'88-73-3'
p9250
aS'88-73-3'
p9251
aS''
asS'7295'
p9252
(lp9253
S'96-34-4'
p9254
aS''
asS'2913'
p9255
(lp9256
S'129-03-3'
p9257
aS''
asS'14410'
p9258
(lp9259
S'1163-19-5'
p9260
aS''
asS'86'
p9261
(lp9262
S'548-93-6'
p9263
aS''
asS'5997'
p9264
(lp9265
S'57-88-5'
p9266
aS''
asS'1292'
p9267
(lp9268
S'90-64-2'
p9269
aS''
asS'8484'
p9270
(lp9271
S'121-63-1'
p9272
aS''
asS'13543'
p9273
(lp9274
S'924-42-5'
p9275
aS''
asS'12388'
p9276
(lp9277
S'629-50-5'
p9278
aS''
asS'8698'
p9279
(lp9280
S'136-60-7'
p9281
aS''
asS'8398'
p9282
(lp9283
S'119-47-1'
p9284
aS''
asS'3384'
p9285
(lp9286
S'426-13-1'
p9287
aS''
asS'7094'
p9288
(lp9289
S'92-51-3'
p9290
aS''
asS'8008'
p9291
(lp9292
S'109-74-0'
p9293
aS'109-74-0'
p9294
aS'109-74-0'
p9295
aS''
asS'8554'
p9296
(lp9297
S'131-11-3'
p9298
aS'131-11-3'
p9299
aS'131-11-3'
p9300
aS''
asS'7929'
p9301
(lp9302
S'108-38-3'
p9303
aS'108-38-3'
p9304
aS'108-38-3'
p9305
aS''
asS'6547'
p9306
(lp9307
S'78-67-1'
p9308
aS''
asS'8203'
p9309
(lp9310
S'112-63-0'
p9311
aS''
asS'6544'
p9312
(lp9313
S'78-59-1'
p9314
aS'78-59-1'
p9315
aS'78-59-1'
p9316
aS''
asS'6540'
p9317
(lp9318
S'78-51-3'
p9319
aS''
asS'6549'
p9320
(lp9321
S'78-70-6'
p9322
aS''
asS'6548'
p9323
(lp9324
S'78-69-3'
p9325
aS''
asS'8481'
p9326
(lp9327
S'121-60-8'
p9328
aS''
asS'7469'
p9329
(lp9330
S'99-93-4'
p9331
aS''
asS'7108'
p9332
(lp9333
S'92-84-2'
p9334
aS'92-84-2'
p9335
aS'92-84-2'
p9336
aS''
asS'7463'
p9337
(lp9338
S'99-87-6'
p9339
aS''
asS'7462'
p9340
(lp9341
S'99-86-5'
p9342
aS''
asS'7461'
p9343
(lp9344
S'99-85-4'
p9345
aS''
asS'3198'
p9346
(lp9347
S'27220-47-9'
p9348
aS''
asS'7465'
p9349
(lp9350
S'99-89-8'
p9351
aS''
as.