(dp1
S'965'
p2
(lp3
S'68412-07-7'
p4
aS''
asS'4020'
p5
(lp6
S'22232-71-9'
p7
aS''
asS'4021'
p8
(lp9
S'89-25-8'
p10
aS''
asS'1615'
p11
(lp12
S'42542-10-9'
p13
aS''
asS'5988'
p14
(lp15
S'57-50-1'
p16
aS'57-50-1'
p17
aS'57-50-1'
p18
aS'57-50-1'
p19
aS''
asS'5983'
p20
(lp21
S'57-47-6'
p22
aS''
asS'5987'
p23
(lp24
S'5329-14-6'
p25
aS''
asS'340'
p26
(lp27
S'488-17-5'
p28
aS''
asS'342'
p29
(lp30
S'108-39-4'
p31
aS'108-39-4'
p32
aS'108-39-4'
p33
aS''
asS'3998'
p34
(lp35
S'138-39-6'
p36
aS''
asS'967'
p37
(lp38
S'65-86-1'
p39
aS''
asS'4737'
p40
(lp41
S'76-74-4'
p42
aS''
asS'2318'
p43
(lp44
S'23602-78-0'
p45
aS''
asS'4735'
p46
(lp47
S'100-33-4'
p48
aS''
asS'2315'
p49
(lp50
S'73-48-3'
p51
aS''
asS'5850'
p52
(lp53
S'144-44-5'
p54
aS''
asS'5852'
p55
(lp56
S'52-67-5'
p57
aS''
asS'299'
p58
(lp59
S'143-50-0'
p60
aS'143-50-0'
p61
aS''
asS'297'
p62
(lp63
S'74-82-8'
p64
aS'8006-14-2'
p65
aS'74-82-8'
p66
aS''
asS'294'
p67
(lp68
S'69-79-4'
p69
aS'69-79-4'
p70
aS''
asS'3776'
p71
(lp72
S'67-63-0'
p73
aS'67-63-0'
p74
aS'67-63-0'
p75
aS''
asS'3775'
p76
(lp77
S'7492-32-2'
p78
aS''
asS'3779'
p79
(lp80
S'7683-59-2'
p81
aS''
asS'274'
p82
(lp83
S'60-92-4'
p84
aS''
asS'4650'
p85
(lp86
S'106-51-4'
p87
aS'106-51-4'
p88
aS'106-51-4'
p89
aS''
asS'277'
p90
(lp91
S'463-77-4'
p92
aS''
asS'962'
p93
(lp94
S'7732-18-5'
p95
aS''
asS'2268'
p96
(lp97
S'86-50-0'
p98
aS'86-50-0'
p99
aS''
asS'2269'
p100
(lp101
S'83905-01-5'
p102
aS''
asS'2266'
p103
(lp104
S'123-99-9'
p105
aS'123-99-9'
p106
aS''
asS'2267'
p107
(lp108
S'58581-89-8'
p109
aS''
asS'2265'
p110
(lp111
S'446-86-6'
p112
aS''
asS'2442'
p113
(lp114
S'3572-43-8'
p115
aS''
asS'2441'
p116
(lp117
S'1812-30-2'
p118
aS''
asS'2446'
p119
(lp120
S'4093-35-0'
p121
aS''
asS'2444'
p122
(lp123
S'118-23-0'
p124
aS''
asS'101'
p125
(lp126
S'100-83-4'
p127
aS''
asS'107'
p128
(lp129
S'501-52-0'
p130
aS''
asS'4812'
p131
(lp132
S'84-80-0'
p133
aS''
asS'1060'
p134
(lp135
S'127-17-3'
p136
aS''
asS'3519'
p137
(lp138
S'29110-47-2'
p139
aS''
asS'3518'
p140
(lp141
S'645-43-2'
p142
aS''
asS'2732'
p143
(lp144
S'77-36-1'
p145
aS''
asS'3510'
p146
(lp147
S'109889-09-0'
p148
aS''
asS'3517'
p149
(lp150
S'5051-62-7'
p151
aS''
asS'3516'
p152
(lp153
S'93-14-1'
p154
aS'93-14-1'
p155
aS''
asS'2681'
p156
(lp157
S'57-09-0'
p158
aS''
asS'2682'
p159
(lp160
S'36653-82-4'
p161
aS''
asS'3393'
p162
(lp163
S'17617-23-1'
p164
aS''
asS'96'
p165
(lp166
S'541-50-4'
p167
aS''
asS'1993'
p168
(lp169
S'55-92-5'
p170
aS''
asS'1626'
p171
(lp172
S'102-83-0'
p173
aS''
asS'3209'
p174
(lp175
S'10417-94-4'
p176
aS''
asS'5054'
p177
(lp178
S'108-46-3'
p179
aS'108-46-3'
p180
aS'108-46-3'
p181
aS''
asS'1198'
p182
(lp183
S'320-77-4'
p184
aS''
asS'3348'
p185
(lp186
S'83799-24-0'
p187
aS''
asS'3342'
p188
(lp189
S'34597-40-5'
p190
aS''
asS'3343'
p191
(lp192
S'13392-18-2'
p193
aS''
asS'3341'
p194
(lp195
S'67227-57-0'
p196
aS''
asS'3346'
p197
(lp198
S'55-38-9'
p199
aS'55-38-9'
p200
aS''
asS'3344'
p201
(lp202
S'5053-06-5'
p203
aS''
asS'3345'
p204
(lp205
S'437-38-7'
p206
aS''
asS'1752'
p207
(lp208
S'25154-52-3'
p209
aS''
asS'4259'
p210
(lp211
S'354812-41-2'
p212
aS''
asS'1176'
p213
(lp214
S'57-13-6'
p215
aS'57-13-6'
p216
aS''
asS'1175'
p217
(lp218
S'69-93-2'
p219
aS'69-93-2'
p220
aS''
asS'1174'
p221
(lp222
S'66-22-8'
p223
aS''
asS'1172'
p224
(lp225
S'58-97-9'
p226
aS''
asS'5533'
p227
(lp228
S'19794-93-5'
p229
aS''
asS'5530'
p230
(lp231
S'155-09-9'
p232
aS''
asS'5538'
p233
(lp234
S'302-79-4'
p235
aS'4759-48-2'
p236
aS''
asS'1573'
p237
(lp238
S'362-07-2'
p239
aS''
asS'681'
p240
(lp241
S'51-61-6'
p242
aS''
asS'874'
p243
(lp244
S'498-23-7'
p245
aS''
asS'403'
p246
(lp247
S'123-30-8'
p248
aS''
asS'402'
p249
(lp250
S'7704-34-9'
p251
aS'7783-06-4'
p252
aS'9035-99-8'
p253
aS'7783-06-4'
p254
aS'7783-06-4'
p255
aS''
asS'4030'
p256
(lp257
S'31431-39-7'
p258
aS''
asS'4033'
p259
(lp260
S'51-75-2'
p261
aS''
asS'4032'
p262
(lp263
S'60-40-2'
p264
aS''
asS'4034'
p265
(lp266
S'569-65-3'
p267
aS''
asS'4037'
p268
(lp269
S'644-62-2'
p270
aS''
asS'4599'
p271
(lp272
S'96829-58-2'
p273
aS''
asS'4734'
p274
(lp275
S'5534-95-2'
p276
aS''
asS'379'
p277
(lp278
S'124-07-2'
p279
aS'124-07-2'
p280
aS''
asS'378'
p281
(lp282
S'330-13-2'
p283
aS''
asS'398'
p284
(lp285
S'79-46-9'
p286
aS'79-46-9'
p287
aS'79-46-9'
p288
aS''
asS'2309'
p289
(lp290
S'39552-01-7'
p291
aS''
asS'4725'
p292
(lp293
S'39809-25-1'
p294
aS''
asS'4724'
p295
(lp296
S'36507-48-9'
p297
aS''
asS'4727'
p298
(lp299
S'52-67-5'
p300
aS''
asS'2307'
p301
(lp302
S'5534-09-8'
p303
aS''
asS'5105'
p304
(lp305
S'78628-28-1'
p306
aS''
asS'3748'
p307
(lp308
S'54-92-2'
p309
aS''
asS'3749'
p310
(lp311
S'138402-11-6'
p312
aS''
asS'3746'
p313
(lp314
S'60205-81-4'
p315
aS''
asS'244'
p316
(lp317
S'100-51-6'
p318
aS'100-51-6'
p319
aS''
asS'4622'
p320
(lp321
S'20559-55-1'
p322
aS''
asS'241'
p323
(lp324
S'71-43-2'
p325
aS'71-43-2'
p326
aS'71-43-2'
p327
aS''
asS'240'
p328
(lp329
S'100-52-7'
p330
aS''
asS'243'
p331
(lp332
S'65-85-0'
p333
aS'65-85-0'
p334
aS''
asS'2271'
p335
(lp336
S'37091-66-0'
p337
aS''
asS'2273'
p338
(lp339
S'27589-33-9'
p340
aS''
asS'2451'
p341
(lp342
S'57801-81-7'
p343
aS''
asS'3198'
p344
(lp345
S'27220-47-9'
p346
aS''
asS'179'
p347
(lp348
S'513-86-0'
p349
aS'513-86-0'
p350
aS''
asS'178'
p351
(lp352
S'60-35-5'
p353
aS''
asS'177'
p354
(lp355
S'75-07-0'
p356
aS'75-07-0'
p357
aS'75-07-0'
p358
aS''
asS'176'
p359
(lp360
S'64-19-7'
p361
aS'64-19-7'
p362
aS'64-19-7'
p363
aS'64-19-7'
p364
aS''
asS'175'
p365
(lp366
S'64-19-7'
p367
aS''
asS'174'
p368
(lp369
S'107-21-1'
p370
aS'107-21-1'
p371
aS'107-21-1'
p372
aS''
asS'173'
p373
(lp374
S'4707-58-8'
p375
aS''
asS'3698'
p376
(lp377
S'60719-84-8'
p378
aS''
asS'4539'
p379
(lp380
S'70458-96-7'
p381
aS''
asS'4828'
p382
(lp383
S'13523-86-9'
p384
aS''
asS'4829'
p385
(lp386
S'111025-46-8'
p387
aS''
asS'3690'
p388
(lp389
S'3778-73-2'
p390
aS''
asS'3520'
p391
(lp392
S'113-00-8'
p393
aS''
asS'338'
p394
(lp395
S'69-72-7'
p396
aS'69-72-7'
p397
aS''
asS'3080'
p398
(lp399
S'59-52-9'
p400
aS''
asS'1601'
p401
(lp402
S'73-04-1'
p403
aS''
asS'2405'
p404
(lp405
S'66722-44-9'
p406
aS''
asS'3672'
p407
(lp408
S'15687-27-1'
p409
aS'15687-27-1'
p410
aS''
asS'5195'
p411
(lp412
S'14611-51-9'
p413
aS''
asS'3676'
p414
(lp415
S'137-58-6'
p416
aS''
asS'1614'
p417
(lp418
S'4764-17-4'
p419
aS''
asS'5193'
p420
(lp421
S'76-73-3'
p422
aS''
asS'3677'
p423
(lp424
S'100-92-5'
p425
aS''
asS'3675'
p426
(lp427
S'51-71-8'
p428
aS''
asS'2879'
p429
(lp430
S'106-44-5'
p431
aS'106-44-5'
p432
aS'106-44-5'
p433
aS'106-44-5'
p434
aS''
asS'4534'
p435
(lp436
S'500-38-9'
p437
aS''
asS'3354'
p438
(lp439
S'15301-69-6'
p440
aS''
asS'3357'
p441
(lp442
S'79660-72-3'
p443
aS''
asS'3356'
p444
(lp445
S'54143-55-4'
p446
aS''
asS'5440'
p447
(lp448
S'1420-55-9'
p449
aS''
asS'5447'
p450
(lp451
S'111-48-8'
p452
aS''
asS'5446'
p453
(lp454
S'7519-74-6'
p455
aS''
asS'1140'
p456
(lp457
S'108-88-3'
p458
aS'108-88-3'
p459
aS'108-88-3'
p460
aS'108-88-3'
p461
aS''
asS'1146'
p462
(lp463
S'75-50-3'
p464
aS'75-50-3'
p465
aS'75-50-3'
p466
aS''
asS'1144'
p467
(lp468
S'4484-88-2'
p469
aS''
asS'5509'
p470
(lp471
S'26171-23-3'
p472
aS''
asS'5504'
p473
(lp474
S'59-98-3'
p475
aS''
asS'5505'
p476
(lp477
S'64-77-7'
p478
aS''
asS'5502'
p479
(lp480
S'22345-47-7'
p481
aS''
asS'5503'
p482
(lp483
S'1156-19-0'
p484
aS''
asS'546'
p485
(lp486
S'4408-78-0'
p487
aS'4408-78-0'
p488
aS''
asS'547'
p489
(lp490
S'102-32-9'
p491
aS''
asS'761'
p492
(lp493
S'85-32-5'
p494
aS''
asS'19'
p495
(lp496
S'303-38-8'
p497
aS''
asS'5472'
p498
(lp499
S'55142-85-3'
p500
aS''
asS'3325'
p501
(lp502
S'76824-35-6'
p503
aS''
asS'3827'
p504
(lp505
S'34580-14-8'
p506
aS''
asS'3826'
p507
(lp508
S'66635-83-4'
p509
aS''
asS'3825'
p510
(lp511
S'22071-15-4'
p512
aS''
asS'3824'
p513
(lp514
S'853-34-9'
p515
aS''
asS'3823'
p516
(lp517
S'65277-42-1'
p518
aS''
asS'3821'
p519
(lp520
S'6740-88-1'
p521
aS''
asS'5471'
p522
(lp523
S'34787-01-4'
p524
aS''
asS'2769'
p525
(lp526
S'81098-60-4'
p527
aS''
asS'2762'
p528
(lp529
S'28657-80-9'
p530
aS''
asS'2761'
p531
(lp532
S'298-57-7'
p533
aS''
asS'385'
p534
(lp535
S'111-16-0'
p536
aS'111-16-0'
p537
aS''
asS'4753'
p538
(lp539
S'63-98-9'
p540
aS''
asS'4754'
p541
(lp542
S'62-44-2'
p543
aS''
asS'4756'
p544
(lp545
S'94-78-0'
p546
aS''
asS'5870'
p547
(lp548
S'53-16-7'
p549
aS''
asS'5875'
p550
(lp551
S'53-33-8'
p552
aS''
asS'5878'
p553
(lp554
S'53-39-4'
p555
aS''
asS'3759'
p556
(lp557
S'59-63-2'
p558
aS''
asS'4633'
p559
(lp560
S'99-43-4'
p561
aS''
asS'4632'
p562
(lp563
S'131-57-7'
p564
aS'131-57-7'
p565
aS''
asS'4631'
p566
(lp567
S'6452-71-7'
p568
aS''
asS'4636'
p569
(lp570
S'1491-59-4'
p571
aS''
asS'4634'
p572
(lp573
S'5633-20-5'
p574
aS''
asS'252'
p575
(lp576
S'6779-87-9'
p577
aS''
asS'251'
p578
(lp579
S'114-25-0'
p580
aS''
asS'254'
p581
(lp582
S'1133-63-7'
p583
aS''
asS'3689'
p584
(lp585
S'23210-56-2'
p586
aS''
asS'4528'
p587
(lp588
S'24526-64-5'
p589
aS''
asS'2519'
p590
(lp591
S'58-08-2'
p592
aS'58-08-2'
p593
aS''
asS'2735'
p594
(lp595
S'67-97-0'
p596
aS''
asS'2730'
p597
(lp598
S'2921-88-2'
p599
aS'2921-88-2'
p600
aS''
asS'5291'
p601
(lp602
S'152459-95-5'
p603
aS''
asS'3532'
p604
(lp605
S'498-96-4'
p606
aS''
asS'674'
p607
(lp608
S'124-40-3'
p609
aS'124-40-3'
p610
aS'124-40-3'
p611
aS''
asS'300'
p612
(lp613
S'79-11-8'
p614
aS''
asS'5468'
p615
(lp616
S'33005-95-7'
p617
aS''
asS'675'
p618
(lp619
S'582-60-5'
p620
aS''
asS'670'
p621
(lp622
S'96-26-4'
p623
aS''
asS'673'
p624
(lp625
S'1118-68-9'
p626
aS''
asS'3229'
p627
(lp628
S'74011-58-8'
p629
aS''
asS'1978'
p630
(lp631
S'37517-30-9'
p632
aS''
asS'3224'
p633
(lp634
S'115-29-7'
p635
aS'115-29-7'
p636
aS''
asS'3226'
p637
(lp638
S'13838-16-9'
p639
aS'13838-16-9'
p640
aS'13838-16-9'
p641
aS''
asS'3222'
p642
(lp643
S'75847-73-3'
p644
aS''
asS'807'
p645
(lp646
S'7553-56-2'
p647
aS'7553-56-2'
p648
aS'7553-56-2'
p649
aS''
asS'805'
p650
(lp651
S'47055-78-7'
p652
aS''
asS'3324'
p653
(lp654
S'104227-87-4'
p655
aS''
asS'3327'
p656
(lp657
S'4602-84-0'
p658
aS''
asS'5478'
p659
(lp660
S'26839-75-8'
p661
aS''
asS'5479'
p662
(lp663
S'19387-91-8'
p664
aS''
asS'1775'
p665
(lp666
S'57-41-0'
p667
aS''
asS'5277'
p668
(lp669
S'10418-03-8'
p670
aS''
asS'5279'
p671
(lp672
S'62996-74-1'
p673
aS''
asS'326'
p674
(lp675
S'122-03-2'
p676
aS''
asS'1152'
p677
(lp678
S'7783-03-1'
p679
aS''
asS'5510'
p680
(lp681
S'2398-96-1'
p682
aS''
asS'5512'
p683
(lp684
S'124937-51-5'
p685
aS''
asS'3038'
p686
(lp687
S'120-97-8'
p688
aS''
asS'3039'
p689
(lp690
S'62-73-7'
p691
aS'62-73-7'
p692
aS''
asS'3036'
p693
(lp694
S'50-29-3'
p695
aS'50-29-3'
p696
aS''
asS'3030'
p697
(lp698
S'1918-00-9'
p699
aS''
asS'3033'
p700
(lp701
S'15307-86-5'
p702
aS''
asS'535'
p703
(lp704
S'22059-21-8'
p705
aS''
asS'2995'
p706
(lp707
S'50-47-5'
p708
aS''
asS'5604'
p709
(lp710
S'69-33-0'
p711
aS''
asS'5601'
p712
(lp713
S'326-91-0'
p714
aS''
asS'3290'
p715
(lp716
S'1094-08-2'
p717
aS''
asS'3291'
p718
(lp719
S'77-67-8'
p720
aS''
asS'3292'
p721
(lp722
S'86-35-1'
p723
aS''
asS'421'
p724
(lp725
S'462-20-4'
p726
aS''
asS'1390'
p727
(lp728
S'616-47-7'
p729
aS'616-47-7'
p730
aS''
asS'3813'
p731
(lp732
S'97161-97-2'
p733
aS''
asS'3817'
p734
(lp735
S'192725-17-0'
p736
aS''
asS'856'
p737
(lp738
S'79-63-0'
p739
aS''
asS'850'
p740
(lp741
S'60802-29-1'
p742
aS''
asS'4748'
p743
(lp744
S'58-39-9'
p745
aS''
asS'4740'
p746
(lp747
S'6493-05-6'
p748
aS''
asS'4747'
p749
(lp750
S'2622-26-6'
p751
aS''
asS'4746'
p752
(lp753
S'6621-47-2'
p754
aS''
asS'4745'
p755
(lp756
S'66104-22-1'
p757
aS''
asS'5865'
p758
(lp759
S'53-03-2'
p760
aS''
asS'5862'
p761
(lp762
S'52-90-4'
p763
aS'921-01-7'
p764
aS'52-90-4'
p765
aS''
asS'6'
(lp766
S'97-00-7'
p767
aS''
asS'2332'
p768
(lp769
S'618-39-3'
p770
aS''
asS'227'
p771
(lp772
S'118-92-3'
p773
aS''
asS'225'
p774
(lp775
S'53-42-9'
p776
aS''
asS'4605'
p777
(lp778
S'630-60-4'
p779
aS''
asS'4601'
p780
(lp781
S'83-98-7'
p782
aS''
asS'2336'
p783
(lp784
S'50-32-8'
p785
aS'50-32-8'
p786
aS''
asS'2337'
p787
(lp788
S'94-09-7'
p789
aS'94-09-7'
p790
aS''
asS'159'
p791
(lp792
S'35121-78-9'
p793
aS''
asS'2431'
p794
(lp795
S'59-41-6'
p796
aS''
asS'2435'
p797
(lp798
S'59803-98-4'
p799
aS''
asS'4510'
p800
(lp801
S'55-63-0'
p802
aS'55-63-0'
p803
aS'55-63-0'
p804
aS'55-63-0'
p805
aS''
asS'4205'
p806
(lp807
S'61337-67-5'
p808
aS''
asS'2727'
p809
(lp810
S'94-20-2'
p811
aS''
asS'2726'
p812
(lp813
S'50-53-3'
p814
aS''
asS'2725'
p815
(lp816
S'132-22-9'
p817
aS''
asS'2722'
p818
(lp819
S'773-76-2'
p820
aS''
asS'2720'
p821
(lp822
S'58-94-6'
p823
aS''
asS'5281'
p824
(lp825
S'57-11-4'
p826
aS'57-11-4'
p827
aS''
asS'2729'
p828
(lp829
S'113-59-7'
p830
aS''
asS'3783'
p831
(lp832
S'395-28-8'
p833
aS''
asS'3781'
p834
(lp835
S'482-15-5'
p836
aS''
asS'3784'
p837
(lp838
S'75695-93-1'
p839
aS''
asS'1808'
p840
(lp841
S'28733-43-9'
p842
aS''
asS'4992'
p843
(lp844
S'91-84-9'
p845
aS''
asS'4993'
p846
(lp847
S'58-14-0'
p848
aS''
asS'4991'
p849
(lp850
S'155-97-5'
p851
aS''
asS'126'
p852
(lp853
S'123-08-0'
p854
aS''
asS'4999'
p855
(lp856
S'36735-22-5'
p857
aS''
asS'1949'
p858
(lp859
S'161582-11-2'
p860
aS''
asS'3251'
p861
(lp862
S'113-15-5'
p863
aS''
asS'854'
p864
(lp865
S'50-69-1'
p866
aS''
asS'811'
p867
(lp868
S'97-65-4'
p869
aS''
asS'1990'
p870
(lp871
S'546-88-3'
p872
aS''
asS'3718'
p873
(lp874
S'31842-01-0'
p875
aS''
asS'3333'
p876
(lp877
S'72509-76-3'
p878
aS''
asS'3337'
p879
(lp880
S'458-24-2'
p881
aS'3239-44-9'
p882
aS''
asS'3335'
p883
(lp884
S'36330-85-5'
p885
aS''
asS'3339'
p886
(lp887
S'49562-28-9'
p888
aS''
asS'5184'
p889
(lp890
S'51-34-3'
p891
aS''
asS'3658'
p892
(lp893
S'68-88-2'
p894
aS''
asS'1129'
p895
(lp896
S'135-16-0'
p897
aS'135-16-0'
p898
aS''
asS'1123'
p899
(lp900
S'107-35-7'
p901
aS''
asS'1125'
p902
(lp903
S'17528-72-2'
p904
aS''
asS'1127'
p905
(lp906
S'110-01-0'
p907
aS''
asS'305'
p908
(lp909
S'62-49-7'
p910
aS''
asS'3026'
p911
(lp912
S'84-74-2'
p913
aS'84-74-2'
p914
aS'84-74-2'
p915
aS''
asS'3025'
p916
(lp917
S'85-79-0'
p918
aS''
asS'3024'
p919
(lp920
S'74-95-3'
p921
aS''
asS'525'
p922
(lp923
S'6915-15-7'
p924
aS''
asS'527'
p925
(lp926
S'123-38-6'
p927
aS''
asS'1014'
p928
(lp929
S'107-73-3'
p930
aS''
asS'1015'
p931
(lp932
S'1071-23-4'
p933
aS''
asS'1017'
p934
(lp935
S'88-99-3'
p936
aS''
asS'529'
p937
(lp938
S'13147-57-4'
p939
aS''
asS'4909'
p940
(lp941
S'125-33-7'
p942
aS''
asS'303'
p943
(lp944
S'81-25-4'
p945
aS''
asS'4199'
p946
(lp947
S'25905-77-5'
p948
aS''
asS'4197'
p949
(lp950
S'78415-72-2'
p951
aS''
asS'4195'
p952
(lp953
S'133163-28-7'
p954
aS''
asS'4192'
p955
(lp956
S'59467-70-8'
p957
aS''
asS'5672'
p958
(lp959
S'71486-22-1'
p960
aS''
asS'4679'
p961
(lp962
S'102625-70-7'
p963
aS''
asS'4674'
p964
(lp965
S'40391-99-9'
p966
aS''
asS'4906'
p967
(lp968
S'721-50-6'
p969
aS''
asS'5709'
p970
(lp971
S'526-36-3'
p972
aS''
asS'4771'
p973
(lp974
S'122-09-8'
p975
aS''
asS'4174'
p976
(lp977
S'54-36-4'
p978
aS''
asS'4170'
p979
(lp980
S'17560-51-9'
p981
aS''
asS'4171'
p982
(lp983
S'37350-58-6'
p984
aS''
asS'4173'
p985
(lp986
S'443-48-1'
p987
aS''
asS'4178'
p988
(lp989
S'31828-71-4'
p990
aS''
asS'5819'
p991
(lp992
S'51-48-9'
p993
aS''
asS'5810'
p994
(lp995
S'51-35-4'
p996
aS''
asS'5816'
p997
(lp998
S'51-43-4'
p999
aS''
asS'5064'
p1000
(lp1001
S'36791-04-5'
p1002
aS''
asS'4619'
p1003
(lp1004
S'468-61-1'
p1005
aS''
asS'996'
p1006
(lp1007
S'108-95-2'
p1008
aS'108-95-2'
p1009
aS'108-95-2'
p1010
aS'108-95-2'
p1011
aS''
asS'239'
p1012
(lp1013
S'107-95-9'
p1014
aS''
asS'234'
p1015
(lp1016
S'7778-39-4'
p1017
aS'7778-39-4'
p1018
aS''
asS'4610'
p1019
(lp1020
S'694-83-7'
p1021
aS''
asS'237'
p1022
(lp1023
S'83-89-6'
p1024
aS''
asS'231'
p1025
(lp1026
S'506-32-1'
p1027
aS''
asS'4616'
p1028
(lp1029
S'604-75-1'
p1030
aS''
asS'2462'
p1031
(lp1032
S'51333-22-3'
p1033
aS''
asS'998'
p1034
(lp1035
S'122-78-1'
p1036
aS''
asS'992'
p1037
(lp1038
S'87-86-5'
p1039
aS'87-86-5'
p1040
aS'87-86-5'
p1041
aS''
asS'5920'
p1042
(lp1043
S'6893-02-3'
p1044
aS''
asS'146'
p1045
(lp1046
S'134-35-0'
p1047
aS''
asS'1050'
p1048
(lp1049
S'65-22-5'
p1050
aS''
asS'143'
p1051
(lp1052
S'58-05-9'
p1053
aS''
asS'4507'
p1054
(lp1055
S'39562-70-4'
p1056
aS''
asS'4506'
p1057
(lp1058
S'146-22-5'
p1059
aS''
asS'1054'
p1060
(lp1061
S'65-23-6'
p1062
aS''
asS'1055'
p1063
(lp1064
S'447-05-2'
p1065
aS''
asS'5328'
p1066
(lp1067
S'144-82-1'
p1068
aS''
asS'2537'
p1069
(lp1070
S'76-22-2'
p1071
aS'76-22-2'
p1072
aS'76-22-2'
p1073
aS'76-22-2'
p1074
aS''
asS'2534'
p1075
(lp1076
S'101932-71-2'
p1077
aS''
asS'2712'
p1078
(lp1079
S'58-25-3'
p1080
aS''
asS'2710'
p1081
(lp1082
S'82-93-9'
p1083
aS''
asS'5453'
p1084
(lp1085
S'52-24-4'
p1086
aS''
asS'2717'
p1087
(lp1088
S'80-77-3'
p1089
aS''
asS'5454'
p1090
(lp1091
S'5591-45-7'
p1092
aS''
asS'2719'
p1093
(lp1094
S'54-05-7'
p1095
aS''
asS'5329'
p1096
(lp1097
S'723-46-6'
p1098
aS''
asS'5455'
p1099
(lp1100
S'137-26-8'
p1101
aS'137-26-8'
p1102
aS'137-26-8'
p1103
aS''
asS'5078'
p1104
(lp1105
S'145202-66-0'
p1106
aS''
asS'5073'
p1107
(lp1108
S'106266-06-2'
p1109
aS''
asS'5070'
p1110
(lp1111
S'1744-22-5'
p1112
aS''
asS'5071'
p1113
(lp1114
S'13392-28-4'
p1115
aS''
asS'3793'
p1116
(lp1117
S'84625-61-6'
p1118
aS''
asS'3792'
p1119
(lp1120
S'122898-67-3'
p1121
aS''
asS'2406'
p1122
(lp1123
S'97-18-7'
p1124
aS''
asS'932'
p1125
(lp1126
S'480-41-1'
p1127
aS''
asS'931'
p1128
(lp1129
S'91-20-3'
p1130
aS'91-20-3'
p1131
aS'91-20-3'
p1132
aS''
asS'936'
p1133
(lp1134
S'98-92-0'
p1135
aS'98-92-0'
p1136
aS''
asS'935'
p1137
(lp1138
S'7440-02-0'
p1139
aS'7440-02-0'
p1140
aS'7440-02-0'
p1141
aS'7440-02-0'
p1142
aS''
asS'5381'
p1143
(lp1144
S'118292-40-3'
p1145
aS''
asS'3249'
p1146
(lp1147
S'50-14-6'
p1148
aS''
asS'3242'
p1149
(lp1150
S'18694-40-1'
p1151
aS''
asS'3241'
p1152
(lp1153
S'80012-43-7'
p1154
aS''
asS'3245'
p1155
(lp1156
S'10402-90-1'
p1157
aS''
asS'827'
p1158
(lp1159
S'488-81-3'
p1160
aS''
asS'1177'
p1161
(lp1162
S'58-96-8'
p1163
aS''
asS'2284'
p1164
(lp1165
S'1134-47-0'
p1166
aS''
asS'1821'
p1167
(lp1168
S'316-46-1'
p1169
aS''
asS'618'
p1170
(lp1171
S'20479-58-7'
p1172
aS''
asS'1483'
p1173
(lp1174
S'118-79-6'
p1175
aS'118-79-6'
p1176
aS''
asS'2484'
p1177
(lp1178
S'101828-21-1'
p1179
aS''
asS'1480'
p1180
(lp1181
S'93-76-5'
p1182
aS'93-76-5'
p1183
aS''
asS'3308'
p1184
(lp1185
S'41340-25-4'
p1186
aS''
asS'3306'
p1187
(lp1188
S'709-55-7'
p1189
aS''
asS'3305'
p1190
(lp1191
S'7414-83-7'
p1192
aS'2809-21-4'
p1193
aS''
asS'3302'
p1194
(lp1195
S'965-90-2'
p1196
aS''
asS'3303'
p1197
(lp1198
S'76-58-4'
p1199
aS''
asS'797'
p1200
(lp1201
S'131-99-7'
p1202
aS''
asS'5253'
p1203
(lp1204
S'3930-20-9'
p1205
aS''
asS'795'
p1206
(lp1207
S'288-32-4'
p1208
aS''
asS'790'
p1209
(lp1210
S'68-94-0'
p1211
aS''
asS'3050'
p1212
(lp1213
S'3762-25-2'
p1214
aS''
asS'798'
p1215
(lp1216
S'120-72-9'
p1217
aS''
asS'612'
p1218
(lp1219
S'50-21-5'
p1220
aS'50-21-5'
p1221
aS'79-33-4'
p1222
aS''
asS'4062'
p1223
(lp1224
S'96-88-8'
p1225
aS''
asS'1133'
p1226
(lp1227
S'68-11-1'
p1228
aS'68-11-1'
p1229
aS'68-11-1'
p1230
aS''
asS'1132'
p1231
(lp1232
S'154-87-0'
p1233
aS''
asS'1131'
p1234
(lp1235
S'532-40-1'
p1236
aS''
asS'1130'
p1237
(lp1238
S'59-43-8'
p1239
aS''
asS'4060'
p1240
(lp1241
S'50-12-4'
p1242
aS''
asS'1135'
p1243
(lp1244
S'65-71-4'
p1245
aS''
asS'2793'
p1246
(lp1247
S'47739-98-0'
p1248
aS''
asS'4066'
p1249
(lp1250
S'29216-28-2'
p1251
aS''
asS'3019'
p1252
(lp1253
S'364-98-7'
p1254
aS''
asS'4064'
p1255
(lp1256
S'57-53-4'
p1257
aS''
asS'2475'
p1258
(lp1259
S'23284-25-5'
p1260
aS''
asS'3011'
p1261
(lp1262
S'1783-84-2'
p1263
aS''
asS'3016'
p1264
(lp1265
S'439-14-5'
p1266
aS''
asS'3017'
p1267
(lp1268
S'333-41-5'
p1269
aS'333-41-5'
p1270
aS''
asS'1005'
p1271
(lp1272
S'138-08-9'
p1273
aS''
asS'1004'
p1274
(lp1275
S'7664-38-2'
p1276
aS'7664-38-2'
p1277
aS'7664-38-2'
p1278
aS''
asS'1003'
p1279
(lp1280
S'29505-79-1'
p1281
aS''
asS'1001'
p1282
(lp1283
S'64-04-0'
p1284
aS''
asS'4189'
p1285
(lp1286
S'22916-47-8'
p1287
aS''
asS'4184'
p1288
(lp1289
S'24219-97-4'
p1290
aS''
asS'5665'
p1291
(lp1292
S'60643-86-9'
p1293
aS''
asS'2882'
p1294
(lp1295
S'16110-51-3'
p1296
aS''
asS'2883'
p1297
(lp1298
S'483-63-6'
p1299
aS''
asS'1072'
p1300
(lp1301
S'83-88-5'
p1302
aS''
asS'3878'
p1303
(lp1304
S'84057-84-1'
p1305
aS''
asS'3872'
p1306
(lp1307
S'4618-18-2'
p1308
aS''
asS'11'
p1309
(lp1310
S'107-06-2'
p1311
aS'107-06-2'
p1312
aS'107-06-2'
p1313
aS'107-06-2'
p1314
aS''
asS'13'
p1315
(lp1316
S'120-82-1'
p1317
aS'120-82-1'
p1318
aS'120-82-1'
p1319
aS''
asS'15'
p1320
(lp1321
S'521-18-6'
p1322
aS''
asS'5719'
p1323
(lp1324
S'151319-34-5'
p1325
aS''
asS'5717'
p1326
(lp1327
S'107753-78-6'
p1328
aS''
asS'3902'
p1329
(lp1330
S'112809-51-5'
p1331
aS''
asS'4761'
p1332
(lp1333
S'86-21-5'
p1334
aS''
asS'4760'
p1335
(lp1336
S'83-12-5'
p1337
aS''
asS'4763'
p1338
(lp1339
S'50-06-6'
p1340
aS''
asS'4762'
p1341
(lp1342
S'134-49-6'
p1343
aS''
asS'4765'
p1344
(lp1345
S'98-67-9'
p1346
aS''
asS'4764'
p1347
(lp1348
S'77-09-8'
p1349
aS''
asS'4768'
p1350
(lp1351
S'59-96-1'
p1352
aS''
asS'4167'
p1353
(lp1354
S'4969-02-2'
p1355
aS''
asS'4162'
p1356
(lp1357
S'125-64-4'
p1358
aS''
asS'4160'
p1359
(lp1360
S'58-18-4'
p1361
aS''
asS'4168'
p1362
(lp1363
S'364-62-5'
p1364
aS''
asS'5809'
p1365
(lp1366
S'51-34-3'
p1367
aS''
asS'5801'
p1368
(lp1369
S'95-55-6'
p1370
aS''
asS'200'
p1371
(lp1372
S'3031-94-5'
p1373
aS''
asS'206'
p1374
(lp1375
S'50-99-7'
p1376
aS''
asS'5936'
p1377
(lp1378
S'55-91-4'
p1379
aS''
asS'3496'
p1380
(lp1381
S'1071-83-6'
p1382
aS''
asS'3494'
p1383
(lp1384
S'596-51-0'
p1385
aS''
asS'3657'
p1386
(lp1387
S'127-07-1'
p1388
aS''
asS'3652'
p1389
(lp1390
S'118-42-3'
p1391
aS''
asS'2520'
p1392
(lp1393
S'52-53-9'
p1394
aS''
asS'2522'
p1395
(lp1396
S'112965-21-6'
p1397
aS''
asS'222'
p1398
(lp1399
S'7664-41-7'
p1400
aS'7664-41-7'
p1401
aS'7664-41-7'
p1402
aS''
asS'2662'
p1403
(lp1404
S'169590-42-5'
p1405
aS''
asS'2708'
p1406
(lp1407
S'305-03-3'
p1408
aS''
asS'2707'
p1409
(lp1410
S'302-17-0'
p1411
aS''
asS'4883'
p1412
(lp1413
S'6673-35-4'
p1414
aS''
asS'4887'
p1415
(lp1416
S'103177-37-3'
p1417
aS''
asS'4409'
p1418
(lp1419
S'42924-53-8'
p1420
aS''
asS'4976'
p1421
(lp1422
S'438-60-8'
p1423
aS''
asS'4971'
p1424
(lp1425
S'553-12-8'
p1426
aS''
asS'5393'
p1427
(lp1428
S'111902-57-9'
p1429
aS''
asS'5392'
p1430
(lp1431
S'3383-96-8'
p1432
aS'3383-96-8'
p1433
aS'3383-96-8'
p1434
aS''
asS'5391'
p1435
(lp1436
S'846-50-4'
p1437
aS''
asS'5396'
p1438
(lp1439
S'29767-20-2'
p1440
aS''
asS'5394'
p1441
(lp1442
S'85622-93-1'
p1443
aS''
asS'3278'
p1444
(lp1445
S'58-54-8'
p1446
aS''
asS'3475'
p1447
(lp1448
S'21187-98-4'
p1449
aS''
asS'3476'
p1450
(lp1451
S'93479-97-1'
p1452
aS''
asS'835'
p1453
(lp1454
S'490-83-5'
p1455
aS''
asS'3478'
p1456
(lp1457
S'29094-61-9'
p1458
aS''
asS'3310'
p1459
(lp1460
S'33419-42-0'
p1461
aS''
asS'3314'
p1462
(lp1463
S'97-53-0'
p1464
aS''
asS'784'
p1465
(lp1466
S'7722-84-1'
p1467
aS'7722-84-1'
p1468
aS'7722-84-1'
p1469
aS''
asS'785'
p1470
(lp1471
S'123-31-9'
p1472
aS'123-31-9'
p1473
aS'123-31-9'
p1474
aS''
asS'787'
p1475
(lp1476
S'7803-49-8'
p1477
aS''
asS'5248'
p1478
(lp1479
S'1191-50-0'
p1480
aS''
asS'783'
p1481
(lp1482
S'1333-74-0'
p1483
aS'1333-74-0'
p1484
aS''
asS'5245'
p1485
(lp1486
S'105462-24-6'
p1487
aS''
asS'1727'
p1488
(lp1489
S'504-24-5'
p1490
aS''
asS'4463'
p1491
(lp1492
S'129618-40-2'
p1493
aS''
asS'5625'
p1494
(lp1495
S'136817-59-9'
p1496
aS''
asS'5487'
p1497
(lp1498
S'51322-75-9'
p1499
aS''
asS'3007'
p1500
(lp1501
S'300-62-9'
p1502
aS''
asS'3312'
p1503
(lp1504
S'54350-48-0'
p1505
aS''
asS'5482'
p1506
(lp1507
S'65899-73-2'
p1508
aS''
asS'1032'
p1509
(lp1510
S'79-09-4'
p1511
aS'79-09-4'
p1512
aS'79-09-4'
p1513
aS'79-09-4'
p1514
aS''
asS'1030'
p1515
(lp1516
S'57-55-6'
p1517
aS'57-55-6'
p1518
aS''
asS'637'
p1519
(lp1520
S'951-77-9'
p1521
aS''
asS'2895'
p1522
(lp1523
S'303-53-7'
p1524
aS''
asS'2893'
p1525
(lp1526
S'456-59-7'
p1527
aS''
asS'1102'
p1528
(lp1529
S'124-20-9'
p1530
aS''
asS'1103'
p1531
(lp1532
S'71-44-3'
p1533
aS'68956-56-9'
p1534
aS''
asS'1100'
p1535
(lp1536
S'7782-99-2'
p1537
aS''
asS'3869'
p1538
(lp1539
S'36894-69-6'
p1540
aS''
asS'4086'
p1541
(lp1542
S'586-06-1'
p1543
aS''
asS'323'
p1544
(lp1545
S'91-64-5'
p1546
aS''
asS'5721'
p1547
(lp1548
S'139110-80-8'
p1549
aS''
asS'5726'
p1550
(lp1551
S'30516-87-1'
p1552
aS''
asS'5727'
p1553
(lp1554
S'7646-85-7'
p1555
aS'7646-85-7'
p1556
aS'7646-85-7'
p1557
aS''
asS'2805'
p1558
(lp1559
S'3703-76-2'
p1560
aS''
asS'3730'
p1561
(lp1562
S'66108-95-0'
p1563
aS''
asS'3917'
p1564
(lp1565
S'829-74-3'
p1566
aS''
asS'3916'
p1567
(lp1568
S'60-99-1'
p1569
aS''
asS'3911'
p1570
(lp1571
S'53714-56-0'
p1572
aS''
asS'4794'
p1573
(lp1574
S'51276-47-2'
p1575
aS''
asS'4797'
p1576
(lp1577
S'51528-59-7'
p1578
aS''
asS'4790'
p1579
(lp1580
S'298-02-2'
p1581
aS'298-02-2'
p1582
aS''
asS'5831'
p1583
(lp1584
S'51-83-2'
p1585
aS''
asS'4158'
p1586
(lp1587
S'113-45-1'
p1588
aS''
asS'5997'
p1589
(lp1590
S'57-88-5'
p1591
aS''
asS'5839'
p1592
(lp1593
S'52-39-1'
p1594
aS''
asS'5991'
p1595
(lp1596
S'57-63-6'
p1597
aS''
asS'5993'
p1598
(lp1599
S'57-74-9'
p1600
aS'57-74-9'
p1601
aS''
asS'983'
p1602
(lp1603
S'10380-08-2'
p1604
aS''
asS'218'
p1605
(lp1606
S'3672-03-5'
p1607
aS''
asS'4837'
p1608
(lp1609
S'110-85-0'
p1610
aS'110-85-0'
p1611
aS''
asS'980'
p1612
(lp1613
S'100-02-7'
p1614
aS''
asS'5906'
p1615
(lp1616
S'54-49-9'
p1617
aS''
asS'4'
(lp1618
S'78-96-6'
p1619
aS'78-96-6'
p1620
aS''
asS'5904'
p1621
(lp1622
S'61-33-6'
p1623
aS''
asS'5905'
p1624
(lp1625
S'54-42-2'
p1626
aS''
asS'5909'
p1627
(lp1628
S'54-71-7'
p1629
aS''
asS'3488'
p1630
(lp1631
S'10238-21-8'
p1632
aS''
asS'3485'
p1633
(lp1634
S'111-30-8'
p1635
aS'111-30-8'
p1636
aS'111-30-8'
p1637
aS''
asS'3487'
p1638
(lp1639
S'77-21-4'
p1640
aS''
asS'3647'
p1641
(lp1642
S'135-09-1'
p1643
aS''
asS'3640'
p1644
(lp1645
S'50-23-7'
p1646
aS''
asS'2554'
p1647
(lp1648
S'298-46-4'
p1649
aS''
asS'2391'
p1650
(lp1651
S'603-50-9'
p1652
aS''
asS'4893'
p1653
(lp1654
S'19216-56-9'
p1655
aS''
asS'2771'
p1656
(lp1657
S'59729-33-8'
p1658
aS''
asS'4891'
p1659
(lp1660
S'55268-74-1'
p1661
aS''
asS'3002'
p1662
(lp1663
S'5863-40-1'
p1664
aS''
asS'4894'
p1665
(lp1666
S'50-24-8'
p1667
aS''
asS'2803'
p1668
(lp1669
S'4205-90-7'
p1670
aS''
asS'2800'
p1671
(lp1672
S'911-45-5'
p1673
aS''
asS'984'
p1674
(lp1675
S'629-80-1'
p1676
aS''
asS'3261'
p1677
(lp1678
S'29975-16-4'
p1679
aS''
asS'1935'
p1680
(lp1681
S'321-64-2'
p1682
aS''
asS'3467'
p1683
(lp1684
S'1403-66-3'
p1685
aS''
asS'3464'
p1686
(lp1687
S'77482-44-1'
p1688
aS''
asS'3463'
p1689
(lp1690
S'25812-30-0'
p1691
aS''
asS'3460'
p1692
(lp1693
S'30562-34-6'
p1694
aS''
asS'3468'
p1695
(lp1696
S'14426-25-6'
p1697
aS''
asS'3366'
p1698
(lp1699
S'2022-85-7'
p1700
aS''
asS'5452'
p1701
(lp1702
S'50-52-2'
p1703
aS''
asS'5238'
p1704
(lp1705
S'7681-82-5'
p1706
aS''
asS'5234'
p1707
(lp1708
S'7647-14-5'
p1709
aS''
asS'5235'
p1710
(lp1711
S'7681-49-4'
p1712
aS'7681-49-4'
p1713
aS''
asS'753'
p1714
(lp1715
S'25618-55-7'
p1716
aS'56-81-5'
p1717
aS'56-81-5'
p1718
aS'56-81-5'
p1719
aS''
asS'751'
p1720
(lp1721
S'367-47-5'
p1722
aS''
asS'750'
p1723
(lp1724
S'56-40-6'
p1725
aS'56-40-6'
p1726
aS''
asS'757'
p1727
(lp1728
S'79-14-1'
p1729
aS'79-14-1'
p1730
aS''
asS'1805'
p1731
(lp1732
S'320-67-2'
p1733
aS''
asS'3070'
p1734
(lp1735
S'67-96-9'
p1736
aS''
asS'2950'
p1737
(lp1738
S'117-10-2'
p1739
aS''
asS'5344'
p1740
(lp1741
S'127-69-5'
p1742
aS''
asS'1024'
p1743
(lp1744
S'72909-34-3'
p1745
aS''
asS'1031'
p1746
(lp1747
S'71-23-8'
p1748
aS'71-23-8'
p1749
aS'71-23-8'
p1750
aS'71-23-8'
p1751
aS''
asS'5340'
p1752
(lp1753
S'72-14-0'
p1754
aS''
asS'1023'
p1755
(lp1756
S'2466-09-3'
p1757
aS''
asS'604'
p1758
(lp1759
S'526-95-4'
p1760
aS''
asS'607'
p1761
(lp1762
S'87-73-0'
p1763
aS''
asS'4362'
p1764
(lp1765
S'128-53-0'
p1766
aS''
asS'1201'
p1767
(lp1768
S'142632-32-4'
p1769
aS''
asS'5641'
p1770
(lp1771
S'51-79-6'
p1772
aS'51-79-6'
p1773
aS''
asS'5645'
p1774
(lp1775
S'128-13-2'
p1776
aS''
asS'3108'
p1777
(lp1778
S'58-32-2'
p1779
aS''
asS'3105'
p1780
(lp1781
S'52365-63-6'
p1782
aS''
asS'3100'
p1783
(lp1784
S'58-73-1'
p1785
aS''
asS'3102'
p1786
(lp1787
S'119-61-9'
p1788
aS'119-61-9'
p1789
aS''
asS'3103'
p1790
(lp1791
S'147-20-6'
p1792
aS''
asS'1110'
p1793
(lp1794
S'110-15-6'
p1795
aS'110-15-6'
p1796
aS''
asS'1115'
p1797
(lp1798
S'57-50-1'
p1799
aS'57-50-1'
p1800
aS'57-50-1'
p1801
aS'57-50-1'
p1802
aS''
asS'1119'
p1803
(lp1804
S'7446-09-5'
p1805
aS'7446-09-5'
p1806
aS'7446-09-5'
p1807
aS''
asS'1118'
p1808
(lp1809
S'7664-93-9'
p1810
aS'7664-93-9'
p1811
aS'7664-93-9'
p1812
aS''
asS'2478'
p1813
(lp1814
S'55-98-1'
p1815
aS''
asS'4093'
p1816
(lp1817
S'79-41-4'
p1818
aS'79-41-4'
p1819
aS'79-41-4'
p1820
aS''
asS'4091'
p1821
(lp1822
S'657-24-9'
p1823
aS''
asS'4097'
p1824
(lp1825
S'5818-17-7'
p1826
aS''
asS'4095'
p1827
(lp1828
S'76-99-3'
p1829
aS''
asS'4099'
p1830
(lp1831
S'50-11-3'
p1832
aS''
asS'4098'
p1833
(lp1834
S'91-80-5'
p1835
aS''
asS'5735'
p1836
(lp1837
S'43200-80-2'
p1838
aS''
asS'4585'
p1839
(lp1840
S'132539-06-1'
p1841
aS''
asS'5733'
p1842
(lp1843
S'33369-31-2'
p1844
aS''
asS'4584'
p1845
(lp1846
S'78111-17-8'
p1847
aS''
asS'487'
p1848
(lp1849
S'516-05-2'
p1850
aS''
asS'4583'
p1851
(lp1852
S'82419-36-1'
p1853
aS''
asS'2733'
p1854
(lp1855
S'95-25-0'
p1856
aS''
asS'5656'
p1857
(lp1858
S'93413-69-5'
p1859
aS''
asS'4723'
p1860
(lp1861
S'2152-34-3'
p1862
aS''
asS'4786'
p1863
(lp1864
S'492-39-7'
p1865
aS''
asS'4781'
p1866
(lp1867
S'50-33-9'
p1868
aS''
asS'5826'
p1869
(lp1870
S'51-64-9'
p1871
aS''
asS'619'
p1872
(lp1873
S'551-84-8'
p1874
aS''
asS'5910'
p1875
(lp1876
S'54-71-7'
p1877
aS''
asS'199'
p1878
(lp1879
S'306-60-5'
p1880
aS''
asS'195'
p1881
(lp1882
S'19046-78-7'
p1883
aS''
asS'196'
p1884
(lp1885
S'124-04-9'
p1886
aS'124-04-9'
p1887
aS''
asS'190'
p1888
(lp1889
S'73-24-5'
p1890
aS''
asS'193'
p1891
(lp1892
S'979-92-0'
p1893
aS''
asS'3678'
p1894
(lp1895
S'150-59-4'
p1896
aS''
asS'3671'
p1897
(lp1898
S'50847-11-5'
p1899
aS''
asS'2541'
p1900
(lp1901
S'139481-59-7'
p1902
aS''
asS'2381'
p1903
(lp1904
S'514-65-8'
p1905
aS''
asS'3589'
p1906
(lp1907
S'76-44-8'
p1908
aS'76-44-8'
p1909
aS''
asS'2767'
p1910
(lp1911
S'15663-27-1'
p1912
aS''
asS'2764'
p1913
(lp1914
S'85721-33-1'
p1915
aS''
asS'4420'
p1916
(lp1917
S'300-76-5'
p1918
aS'300-76-5'
p1919
aS''
asS'4421'
p1920
(lp1921
S'389-08-2'
p1922
aS''
asS'1188'
p1923
(lp1924
S'69-89-6'
p1925
aS''
asS'4956'
p1926
(lp1927
S'41598-07-6'
p1928
aS''
asS'4955'
p1929
(lp1930
S'13367-85-6'
p1931
aS''
asS'3298'
p1932
(lp1933
S'86227-47-6'
p1934
aS''
asS'3299'
p1935
(lp1936
S'29177-84-2'
p1937
aS''
asS'5139'
p1938
(lp1939
S'1071-37-0'
p1940
aS'2986-20-1'
p1941
aS''
asS'3454'
p1942
(lp1943
S'82410-32-0'
p1944
aS''
asS'3739'
p1945
(lp1946
S'606-17-7'
p1947
aS''
asS'2578'
p1948
(lp1949
S'154-93-8'
p1950
aS''
asS'743'
p1951
(lp1952
S'110-94-1'
p1953
aS'110-94-1'
p1954
aS'68603-87-2'
p1955
aS'68937-69-9'
p1956
aS''
asS'449'
p1957
(lp1958
S'150-97-0'
p1959
aS''
asS'3063'
p1960
(lp1961
S'125-28-0'
p1962
aS''
asS'3061'
p1963
(lp1964
S'71-63-6'
p1965
aS''
asS'2949'
p1966
(lp1967
S'17230-88-5'
p1968
aS''
asS'5357'
p1969
(lp1970
S'53583-79-2'
p1971
aS''
asS'5355'
p1972
(lp1973
S'15676-16-1'
p1974
aS''
asS'5352'
p1975
(lp1976
S'38194-50-2'
p1977
aS''
asS'5351'
p1978
(lp1979
S'144-75-2'
p1980
aS''
asS'5359'
p1981
(lp1982
S'40828-46-4'
p1983
aS''
asS'5358'
p1984
(lp1985
S'103628-46-2'
p1986
aS''
asS'4312'
p1987
(lp1988
S'51321-79-0'
p1989
aS''
asS'3735'
p1990
(lp1991
S'96-83-3'
p1992
aS''
asS'2468'
p1993
(lp1994
S'692-13-7'
p1995
aS''
asS'1491'
p1996
(lp1997
S'89-86-1'
p1998
aS'89-86-1'
p1999
aS''
asS'3117'
p2000
(lp2001
S'97-77-8'
p2002
aS'97-77-8'
p2003
aS'97-77-8'
p2004
aS'97-77-8'
p2005
aS''
asS'3114'
p2006
(lp2007
S'3737-09-5'
p2008
aS''
asS'3331'
p2009
(lp2010
S'25451-15-4'
p2011
aS''
asS'1493'
p2012
(lp2013
S'51-28-5'
p2014
aS''
asS'1474'
p2015
(lp2016
S'366-18-7'
p2017
aS''
asS'3336'
p2018
(lp2019
S'13042-18-7'
p2020
aS''
asS'5742'
p2021
(lp2022
S'50-01-1'
p2023
aS''
asS'5743'
p2024
(lp2025
S'50-02-2'
p2026
aS''
asS'5745'
p2027
(lp2028
S'50-04-4'
p2029
aS''
asS'5746'
p2030
(lp2031
S'50-07-7'
p2032
aS''
asS'5748'
p2033
(lp2034
S'50-10-2'
p2035
aS''
asS'5749'
p2036
(lp2037
S'50-10-2'
p2038
aS''
asS'5587'
p2039
(lp2040
S'91-81-6'
p2041
aS''
asS'5584'
p2042
(lp2043
S'739-71-9'
p2044
aS''
asS'5585'
p2045
(lp2046
S'3902-71-4'
p2047
aS''
asS'5583'
p2048
(lp2049
S'52128-35-5'
p2050
aS''
asS'3598'
p2051
(lp2052
S'70-30-4'
p2053
aS''
asS'3939'
p2054
(lp2055
S'1310-65-2'
p2056
aS''
asS'1068'
p2057
(lp2058
S'75-18-3'
p2059
aS''
asS'4130'
p2060
(lp2061
S'298-00-0'
p2062
aS'298-00-0'
p2063
aS''
asS'4133'
p2064
(lp2065
S'119-36-8'
p2066
aS''
asS'1065'
p2067
(lp2068
S'130-95-0'
p2069
aS'56-54-2'
p2070
aS''
asS'1066'
p2071
(lp2072
S'89-00-9'
p2073
aS'89-00-9'
p2074
aS''
asS'4044'
p2075
(lp2076
S'61-68-7'
p2077
aS''
asS'4046'
p2078
(lp2079
S'53230-10-7'
p2080
aS''
asS'4042'
p2081
(lp2082
S'71-58-9'
p2083
aS''
asS'4043'
p2084
(lp2085
S'2668-66-8'
p2086
aS''
asS'4049'
p2087
(lp2088
S'6284-40-8'
p2089
aS''
asS'5960'
p2090
(lp2091
S'56-84-8'
p2092
aS'56-84-8'
p2093
aS''
asS'5961'
p2094
(lp2095
S'56-85-9'
p2096
aS'5959-95-5'
p2097
aS'56-85-9'
p2098
aS''
asS'5962'
p2099
(lp2100
S'56-87-1'
p2101
aS'923-27-3'
p2102
aS''
asS'5963'
p2103
(lp2104
S'56-93-9'
p2105
aS''
asS'3661'
p2106
(lp2107
S'101-31-5'
p2108
aS'51-55-8'
p2109
aS''
asS'3662'
p2110
(lp2111
S'11079-53-1'
p2112
aS''
asS'2286'
p2113
(lp2114
S'1675-54-3'
p2115
aS''
asS'2287'
p2116
(lp2117
S'88899-55-2'
p2118
aS''
asS'974'
p2119
(lp2120
S'471-47-6'
p2121
aS''
asS'4541'
p2122
(lp2123
S'126924-38-7'
p2124
aS''
asS'4543'
p2125
(lp2126
S'72-69-5'
p2127
aS''
asS'971'
p2128
(lp2129
S'144-62-7'
p2130
aS'144-62-7'
p2131
aS'144-62-7'
p2132
aS'144-62-7'
p2133
aS''
asS'2576'
p2134
(lp2135
S'78-44-4'
p2136
aS''
asS'2577'
p2137
(lp2138
S'61422-45-5'
p2139
aS''
asS'2378'
p2140
(lp2141
S'60628-96-8'
p2142
aS''
asS'2374'
p2143
(lp2144
S'88-58-4'
p2145
aS''
asS'2375'
p2146
(lp2147
S'90357-06-5'
p2148
aS''
asS'2370'
p2149
(lp2150
S'674-38-4'
p2151
aS''
asS'2372'
p2152
(lp2153
S'59170-23-9'
p2154
aS''
asS'3596'
p2155
(lp2156
S'3511-16-8'
p2157
aS''
asS'5035'
p2158
(lp2159
S'84449-90-1'
p2160
aS''
asS'4436'
p2161
(lp2162
S'835-31-4'
p2163
aS''
asS'3696'
p2164
(lp2165
S'50-49-7'
p2166
aS''
asS'4432'
p2167
(lp2168
S'360-70-3'
p2169
aS''
asS'1879'
p2170
(lp2171
S'79647-29-3'
p2172
aS''
asS'977'
p2173
(lp2174
S'7782-44-7'
p2175
aS''
asS'4944'
p2176
(lp2177
S'114-26-1'
p2178
aS'114-26-1'
p2179
aS''
asS'4947'
p2180
(lp2181
S'121-79-9'
p2182
aS''
asS'4946'
p2183
(lp2184
S'525-66-6'
p2185
aS''
asS'4940'
p2186
(lp2187
S'362-29-8'
p2188
aS''
asS'4943'
p2189
(lp2190
S'2078-54-8'
p2191
aS'2078-54-8'
p2192
aS''
asS'978'
p2193
(lp2194
S'150-13-0'
p2195
aS'150-13-0'
p2196
aS''
asS'180'
p2197
(lp2198
S'67-64-1'
p2199
aS'67-64-1'
p2200
aS'67-64-1'
p2201
aS''
asS'189'
p2202
(lp2203
S'4985-36-8'
p2204
aS''
asS'187'
p2205
(lp2206
S'51-84-3'
p2207
aS''
asS'5836'
p2208
(lp2209
S'76-57-3'
p2210
aS''
asS'2624'
p2211
(lp2212
S'65085-01-0'
p2213
aS''
asS'3285'
p2214
(lp2215
S'57-63-6'
p2216
aS''
asS'5106'
p2217
(lp2218
S'80214-83-1'
p2219
aS''
asS'5833'
p2220
(lp2221
S'52-01-7'
p2222
aS''
asS'860'
p2223
(lp2224
S'463-40-1'
p2225
aS''
asS'3440'
p2226
(lp2227
S'54-31-9'
p2228
aS''
asS'2756'
p2229
(lp2230
S'51481-61-9'
p2231
aS''
asS'2754'
p2232
(lp2233
S'73963-72-1'
p2234
aS''
asS'2828'
p2235
(lp2236
S'76-57-3'
p2237
aS''
asS'4011'
p2238
(lp2239
S'10262-69-8'
p2240
aS''
asS'2758'
p2241
(lp2242
S'470-82-6'
p2243
aS'470-82-6'
p2244
aS''
asS'887'
p2245
(lp2246
S'67-56-1'
p2247
aS'67-56-1'
p2248
aS'67-56-1'
p2249
aS''
asS'888'
p2250
(lp2251
S'7439-95-4'
p2252
aS''
asS'5215'
p2253
(lp2254
S'68-35-9'
p2255
aS''
asS'5212'
p2256
(lp2257
S'139755-83-2'
p2258
aS''
asS'5210'
p2259
(lp2260
S'106650-56-0'
p2261
aS''
asS'3386'
p2262
(lp2263
S'54910-89-3'
p2264
aS''
asS'777'
p2265
(lp2266
S'73-67-6'
p2267
aS''
asS'772'
p2268
(lp2269
S'9005-49-6'
p2270
aS'9005-49-6'
p2271
aS''
asS'3384'
p2272
(lp2273
S'426-13-1'
p2274
aS''
asS'3385'
p2275
(lp2276
S'51-21-8'
p2277
aS''
asS'72'
p2278
(lp2279
S'99-50-3'
p2280
aS''
asS'3059'
p2281
(lp2282
S'22494-42-4'
p2283
aS''
asS'2972'
p2284
(lp2285
S'30652-11-0'
p2286
aS''
asS'2973'
p2287
(lp2288
S'70-51-9'
p2289
aS''
asS'3054'
p2290
(lp2291
S'56-53-1'
p2292
aS''
asS'3055'
p2293
(lp2294
S'972-02-1'
p2295
aS''
asS'3052'
p2296
(lp2297
S'90-89-1'
p2298
aS''
asS'3053'
p2299
(lp2300
S'67-43-6'
p2301
aS''
asS'79'
p2302
(lp2303
S'100-54-9'
p2304
aS''
asS'5363'
p2305
(lp2306
S'72741-87-8'
p2307
aS''
asS'5361'
p2308
(lp2309
S'145-63-1'
p2310
aS''
asS'1046'
p2311
(lp2312
S'98-96-4'
p2313
aS''
asS'1045'
p2314
(lp2315
S'110-60-1'
p2316
aS'110-60-1'
p2317
aS''
asS'1049'
p2318
(lp2319
S'110-86-1'
p2320
aS'110-86-1'
p2321
aS'110-86-1'
p2322
aS''
asS'1048'
p2323
(lp2324
S'288-13-1'
p2325
aS''
asS'1684'
p2326
(lp2327
S'153168-05-9'
p2328
aS''
asS'3286'
p2329
(lp2330
S'563-12-2'
p2331
aS'563-12-2'
p2332
aS''
asS'2786'
p2333
(lp2334
S'18323-44-9'
p2335
aS''
asS'3284'
p2336
(lp2337
S'126-52-3'
p2338
aS''
asS'3283'
p2339
(lp2340
S'60-29-7'
p2341
aS'69227-20-9'
p2342
aS'60-29-7'
p2343
aS'60-29-7'
p2344
aS''
asS'3120'
p2345
(lp2346
S'330-54-1'
p2347
aS'330-54-1'
p2348
aS'330-54-1'
p2349
aS''
asS'3121'
p2350
(lp2351
S'99-66-1'
p2352
aS''
asS'1317'
p2353
(lp2354
S'646-25-3'
p2355
aS''
asS'1318'
p2356
(lp2357
S'66-71-7'
p2358
aS'66-71-7'
p2359
aS''
asS'5757'
p2360
(lp2361
S'50-28-2'
p2362
aS''
asS'5756'
p2363
(lp2364
S'50-27-1'
p2365
aS''
asS'4236'
p2366
(lp2367
S'68693-11-8'
p2368
aS''
asS'4235'
p2369
(lp2370
S'71320-77-9'
p2371
aS''
asS'3448'
p2372
(lp2373
S'64603-91-4'
p2374
aS''
asS'5591'
p2375
(lp2376
S'97322-87-7'
p2377
aS''
asS'5593'
p2378
(lp2379
S'1508-75-4'
p2380
aS''
asS'5596'
p2381
(lp2382
S'10405-02-4'
p2383
aS''
asS'3948'
p2384
(lp2385
S'98079-51-7'
p2386
aS''
asS'3446'
p2387
(lp2388
S'60142-96-3'
p2389
aS''
asS'313'
p2390
(lp2391
S'7647-01-0'
p2392
aS'7647-01-0'
p2393
aS'7647-01-0'
p2394
aS''
asS'317'
p2395
(lp2396
S'85-61-0'
p2397
aS''
asS'864'
p2398
(lp2399
S'62-46-4'
p2400
aS''
asS'867'
p2401
(lp2402
S'141-82-2'
p2403
aS'141-82-2'
p2404
aS'141-82-2'
p2405
aS''
asS'4121'
p2406
(lp2407
S'135-07-9'
p2408
aS''
asS'4604'
p2409
(lp2410
S'937-13-3'
p2411
aS''
asS'3840'
p2412
(lp2413
S'501-30-4'
p2414
aS''
asS'4057'
p2415
(lp2416
S'25990-43-6'
p2417
aS''
asS'4055'
p2418
(lp2419
S'58-27-5'
p2420
aS''
asS'4054'
p2421
(lp2422
S'19982-08-2'
p2423
aS''
asS'4058'
p2424
(lp2425
S'57-42-1'
p2426
aS''
asS'5979'
p2427
(lp2428
S'57-24-9'
p2429
aS'57-24-9'
p2430
aS''
asS'5978'
p2431
(lp2432
S'57-22-7'
p2433
aS''
asS'5674'
p2434
(lp2435
S'21411-53-0'
p2436
aS''
asS'5970'
p2437
(lp2438
S'461-06-3'
p2439
aS''
asS'5976'
p2440
(lp2441
S'57-14-7'
p2442
aS'57-14-7'
p2443
aS''
asS'5974'
p2444
(lp2445
S'57-09-0'
p2446
aS'57-09-0'
p2447
aS''
asS'2294'
p2448
(lp2449
S'57-44-3'
p2450
aS''
asS'2561'
p2451
(lp2452
S'5697-56-3'
p2453
aS''
asS'5196'
p2454
(lp2455
S'563-41-7'
p2456
aS''
asS'2567'
p2457
(lp2458
S'41575-94-4'
p2459
aS''
asS'2566'
p2460
(lp2461
S'1563-66-2'
p2462
aS'1563-66-2'
p2463
aS'1563-66-2'
p2464
aS''
asS'2369'
p2465
(lp2466
S'63659-18-7'
p2467
aS''
asS'2368'
p2468
(lp2469
S'55-73-2'
p2470
aS''
asS'2366'
p2471
(lp2472
S'5638-76-6'
p2473
aS''
asS'2365'
p2474
(lp2475
S'57-57-8'
p2476
aS'57-57-8'
p2477
aS''
asS'2361'
p2478
(lp2479
S'6051-87-2'
p2480
aS''
asS'5029'
p2481
(lp2482
S'117976-89-3'
p2483
aS''
asS'2585'
p2484
(lp2485
S'72956-09-3'
p2486
aS''
asS'2583'
p2487
(lp2488
S'51781-06-7'
p2489
aS''
asS'2581'
p2490
(lp2491
S'53716-49-7'
p2492
aS''
asS'4440'
p2493
(lp2494
S'121679-13-8'
p2495
aS''
asS'3724'
p2496
(lp2497
S'92339-11-2'
p2498
aS''
asS'3723'
p2499
(lp2500
S'440-58-4'
p2501
aS''
asS'4932'
p2502
(lp2503
S'54063-53-5'
p2504
aS''
asS'4685'
p2505
(lp2506
S'106-46-7'
p2507
aS'106-46-7'
p2508
aS'106-46-7'
p2509
aS''
asS'4934'
p2510
(lp2511
S'298-50-0'
p2512
aS''
asS'4935'
p2513
(lp2514
S'499-67-2'
p2515
aS''
asS'4680'
p2516
(lp2517
S'58-74-2'
p2518
aS''
asS'4939'
p2519
(lp2520
S'36015-30-2'
p2521
aS''
asS'4688'
p2522
(lp2523
S'555-57-7'
p2524
aS''
asS'33'
p2525
(lp2526
S'107-20-0'
p2527
aS'107-20-0'
p2528
aS''
asS'34'
p2529
(lp2530
S'107-07-3'
p2531
aS'107-07-3'
p2532
aS'107-07-3'
p2533
aS''
asS'3438'
p2534
(lp2535
S'617-89-0'
p2536
aS''
asS'878'
p2537
(lp2538
S'74-93-1'
p2539
aS'74-93-1'
p2540
aS'74-93-1'
p2541
aS''
asS'640'
p2542
(lp2543
S'951-78-0'
p2544
aS''
asS'3430'
p2545
(lp2546
S'23110-15-8'
p2547
aS''
asS'875'
p2548
(lp2549
S'133-37-9'
p2550
aS''
asS'3435'
p2551
(lp2552
S'67-45-8'
p2553
aS''
asS'870'
p2554
(lp2555
S'34612-38-9'
p2556
aS'38819-01-1'
p2557
aS''
asS'871'
p2558
(lp2559
S'1109-28-0'
p2560
aS'9004-53-9'
p2561
aS''
asS'4592'
p2562
(lp2563
S'101622-51-9'
p2564
aS''
asS'4848'
p2565
(lp2566
S'28797-61-7'
p2567
aS''
asS'4849'
p2568
(lp2569
S'55837-27-9'
p2570
aS''
asS'4594'
p2571
(lp2572
S'73590-58-6'
p2573
aS'161796-78-7'
p2574
aS''
asS'4595'
p2575
(lp2576
S'99614-02-5'
p2577
aS''
asS'4845'
p2578
(lp2579
S'38677-81-5'
p2580
aS''
asS'4842'
p2581
(lp2582
S'54-91-1'
p2583
aS''
asS'647'
p2584
(lp2585
S'358-72-5'
p2586
aS''
asS'896'
p2587
(lp2588
S'73-31-4'
p2589
aS''
asS'5206'
p2590
(lp2591
S'28523-86-6'
p2592
aS''
asS'3966'
p2593
(lp2594
S'90-39-1'
p2595
aS''
asS'768'
p2596
(lp2597
S'74-90-8'
p2598
aS'74-90-8'
p2599
aS'74-90-8'
p2600
aS''
asS'2966'
p2601
(lp2602
S'1131-64-2'
p2603
aS''
asS'760'
p2604
(lp2605
S'298-12-4'
p2606
aS'298-12-4'
p2607
aS''
asS'2969'
p2608
(lp2609
S'334-48-5'
p2610
aS'334-48-5'
p2611
aS''
asS'2968'
p2612
(lp2613
S'156-74-1'
p2614
aS''
asS'764'
p2615
(lp2616
S'73-40-5'
p2617
aS''
asS'3048'
p2618
(lp2619
S'60-57-1'
p2620
aS'72-20-8'
p2621
aS'60-57-1'
p2622
aS'72-20-8'
p2623
aS''
asS'3042'
p2624
(lp2625
S'77-19-0'
p2626
aS''
asS'4568'
p2627
(lp2628
S'1400-61-9'
p2629
aS''
asS'5379'
p2630
(lp2631
S'112811-59-3'
p2632
aS''
asS'1676'
p2633
(lp2634
S'41078-02-8'
p2635
aS''
asS'1677'
p2636
(lp2637
S'13331-27-6'
p2638
aS''
asS'1672'
p2639
(lp2640
S'5332-73-0'
p2641
aS''
asS'679'
p2642
(lp2643
S'67-68-5'
p2644
aS'67-68-5'
p2645
aS''
asS'4335'
p2646
(lp2647
S'15376-53-1'
p2648
aS''
asS'3132'
p2649
(lp2650
S'76721-89-6'
p2651
aS''
asS'4100'
p2652
(lp2653
S'554-57-4'
p2654
aS''
asS'855'
p2655
(lp2656
S'598-35-6'
p2657
aS''
asS'1051'
p2658
(lp2659
S'54-47-7'
p2660
aS''
asS'5192'
p2661
(lp2662
S'111-20-6'
p2663
aS''
asS'5760'
p2664
(lp2665
S'50-36-2'
p2666
aS''
asS'5761'
p2667
(lp2668
S'50-37-3'
p2669
aS''
asS'5568'
p2670
(lp2671
S'146-54-3'
p2672
aS''
asS'3118'
p2673
(lp2674
S'298-04-4'
p2675
aS'298-04-4'
p2676
aS''
asS'5564'
p2677
(lp2678
S'3380-34-5'
p2679
aS''
asS'5565'
p2680
(lp2681
S'112-24-3'
p2682
aS''
asS'5566'
p2683
(lp2684
S'117-89-5'
p2685
aS''
asS'5560'
p2686
(lp2687
S'133-67-5'
p2688
aS''
asS'1254'
p2689
(lp2690
S'1490-04-6'
p2691
aS''
asS'1253'
p2692
(lp2693
S'102518-79-6'
p2694
aS''
asS'646'
p2695
(lp2696
S'2564-35-4'
p2697
aS''
asS'3958'
p2698
(lp2699
S'846-49-1'
p2700
aS''
asS'3950'
p2701
(lp2702
S'13010-47-4'
p2703
aS''
asS'3957'
p2704
(lp2705
S'79794-75-5'
p2706
aS''
asS'3956'
p2707
(lp2708
S'76470-66-1'
p2709
aS''
asS'3955'
p2710
(lp2711
S'53179-11-6'
p2712
aS''
asS'4116'
p2713
(lp2714
S'76-38-0'
p2715
aS'76-38-0'
p2716
aS'76-38-0'
p2717
aS''
asS'4114'
p2718
(lp2719
S'298-81-7'
p2720
aS''
asS'4115'
p2721
(lp2722
S'72-43-5'
p2723
aS'72-43-5'
p2724
aS''
asS'3295'
p2725
(lp2726
S'452-35-7'
p2727
aS''
asS'648'
p2728
(lp2729
S'155-54-4'
p2730
aS''
asS'2477'
p2731
(lp2732
S'36505-84-7'
p2733
aS''
asS'4449'
p2734
(lp2735
S'83366-66-9'
p2736
aS''
asS'5946'
p2737
(lp2738
S'56-34-8'
p2739
aS''
asS'5943'
p2740
(lp2741
S'56-23-5'
p2742
aS'56-23-5'
p2743
aS'56-23-5'
p2744
aS''
asS'5780'
p2745
(lp2746
S'50-70-4'
p2747
aS'50-70-4'
p2748
aS''
asS'5789'
p2749
(lp2750
S'3424-98-4'
p2751
aS'50-89-5'
p2752
aS''
asS'4890'
p2753
(lp2754
S'2955-38-6'
p2755
aS''
asS'3607'
p2756
(lp2757
S'141-94-6'
p2758
aS''
asS'3606'
p2759
(lp2760
S'84-16-2'
p2761
aS''
asS'3604'
p2762
(lp2763
S'60-26-4'
p2764
aS''
asS'3609'
p2765
(lp2766
S'3215-70-1'
p2767
aS''
asS'3608'
p2768
(lp2769
S'56-29-1'
p2770
aS''
asS'2479'
p2771
(lp2772
S'125-40-6'
p2773
aS''
asS'985'
p2774
(lp2775
S'57-10-3'
p2776
aS'57-10-3'
p2777
aS''
asS'2352'
p2778
(lp2779
S'88430-50-6'
p2780
aS''
asS'2353'
p2781
(lp2782
S'2086-83-1'
p2783
aS''
asS'2350'
p2784
(lp2785
S'125602-71-3'
p2786
aS''
asS'2351'
p2787
(lp2788
S'64706-54-3'
p2789
aS''
asS'2354'
p2790
(lp2791
S'536-71-0'
p2792
aS''
asS'4456'
p2793
(lp2794
S'59-99-4'
p2795
aS''
asS'4455'
p2796
(lp2797
S'2009-64-5'
p2798
aS''
asS'4454'
p2799
(lp2800
S'1404-04-2'
p2801
aS''
asS'4458'
p2802
(lp2803
S'106-25-2'
p2804
aS''
asS'1893'
p2805
(lp2806
S'2942-42-9'
p2807
aS''
asS'4923'
p2808
(lp2809
S'500-92-5'
p2810
aS''
asS'4927'
p2811
(lp2812
S'60-87-7'
p2813
aS''
asS'4926'
p2814
(lp2815
S'58-40-2'
p2816
aS''
asS'955'
p2817
(lp2818
S'27415-09-4'
p2819
aS''
asS'957'
p2820
(lp2821
S'111-87-5'
p2822
aS'68603-15-6'
p2823
aS''
asS'5161'
p2824
(lp2825
S'552-94-3'
p2826
aS''
asS'2642'
p2827
(lp2828
S'70797-11-4'
p2829
aS''
asS'2787'
p2830
(lp2831
S'30299-08-2'
p2832
aS''
asS'2646'
p2833
(lp2834
S'92665-29-7'
p2835
aS''
asS'2781'
p2836
(lp2837
S'15686-51-8'
p2838
aS''
asS'2749'
p2839
(lp2840
S'29342-05-0'
p2841
aS''
asS'2783'
p2842
(lp2843
S'37148-27-9'
p2844
aS''
asS'3420'
p2845
(lp2846
S'98048-97-6'
p2847
aS''
asS'3559'
p2848
(lp2849
S'52-86-8'
p2850
aS''
asS'2910'
p2851
(lp2852
S'2259-96-3'
p2853
aS''
asS'2911'
p2854
(lp2855
S'77-39-4'
p2856
aS''
asS'2913'
p2857
(lp2858
S'129-03-3'
p2859
aS''
asS'713'
p2860
(lp2861
S'75-12-7'
p2862
aS'75-12-7'
p2863
aS'75-12-7'
p2864
aS''
asS'712'
p2865
(lp2866
S'50-00-0'
p2867
aS'30525-89-4'
p2868
aS'50-00-0'
p2869
aS'50-00-0'
p2870
aS'50-00-0'
p2871
aS''
asS'4078'
p2872
(lp2873
S'5588-33-0'
p2874
aS''
asS'5300'
p2875
(lp2876
S'18883-66-4'
p2877
aS''
asS'5304'
p2878
(lp2879
S'57-24-9'
p2880
aS'57-24-9'
p2881
aS''
asS'4075'
p2882
(lp2883
S'89-57-6'
p2884
aS''
asS'595'
p2885
(lp2886
S'56-89-3'
p2887
aS'56-89-3'
p2888
aS''
asS'3140'
p2889
(lp2890
S'2379-57-9'
p2891
aS''
asS'3148'
p2892
(lp2893
S'115956-12-2'
p2894
aS''
asS'2826'
p2895
(lp2896
S'50-36-2'
p2897
aS''
asS'5413'
p2898
(lp2899
S'66-40-0'
p2900
aS''
asS'4211'
p2901
(lp2902
S'53-19-0'
p2903
aS''
asS'4212'
p2904
(lp2905
S'65271-80-9'
p2906
aS''
asS'3961'
p2907
(lp2908
S'114798-26-4'
p2909
aS''
asS'444'
p2910
(lp2911
S'34841-39-9'
p2912
aS''
asS'5771'
p2913
(lp2914
S'50-56-6'
p2915
aS''
asS'5770'
p2916
(lp2917
S'50-55-5'
p2918
aS'50-55-5'
p2919
aS''
asS'5773'
p2920
(lp2921
S'50-59-9'
p2922
aS''
asS'5775'
p2923
(lp2924
S'50-60-2'
p2925
aS''
asS'4201'
p2926
(lp2927
S'38304-91-5'
p2928
aS''
asS'5578'
p2929
(lp2930
S'738-70-5'
p2931
aS''
asS'5577'
p2932
(lp2933
S'138-56-7'
p2934
aS''
asS'5576'
p2935
(lp2936
S'127-48-0'
p2937
aS''
asS'5574'
p2938
(lp2939
S'84-96-8'
p2940
aS''
asS'5572'
p2941
(lp2942
S'144-11-6'
p2943
aS''
asS'3092'
p2944
(lp2945
S'148-01-6'
p2946
aS'148-01-6'
p2947
aS''
asS'2334'
p2948
(lp2949
S'517-60-2'
p2950
aS''
asS'335'
p2951
(lp2952
S'95-48-7'
p2953
aS'95-48-7'
p2954
aS'95-48-7'
p2955
aS''
asS'4101'
p2956
(lp2957
S'100-97-0'
p2958
aS''
asS'4107'
p2959
(lp2960
S'532-03-6'
p2961
aS''
asS'4109'
p2962
(lp2963
S'16752-77-5'
p2964
aS'16752-77-5'
p2965
aS'16752-77-5'
p2966
aS''
asS'5002'
p2967
(lp2968
S'111974-69-7'
p2969
aS''
asS'3899'
p2970
(lp2971
S'75706-12-6'
p2972
aS''
asS'3893'
p2973
(lp2974
S'143-07-7'
p2975
aS''
asS'3890'
p2976
(lp2977
S'130209-82-4'
p2978
aS''
asS'847'
p2979
(lp2980
S'62697-73-8'
p2981
aS''
asS'842'
p2982
(lp2983
S'686-58-8'
p2984
aS''
asS'5951'
p2985
(lp2986
S'56-45-1'
p2987
aS'56-45-1'
p2988
aS''
asS'5950'
p2989
(lp2990
S'56-41-7'
p2991
aS'338-69-2'
p2992
aS''
asS'5953'
p2993
(lp2994
S'56-54-2'
p2995
aS''
asS'5954'
p2996
(lp2997
S'56-55-3'
p2998
aS''
asS'5957'
p2999
(lp3000
S'56-65-5'
p3001
aS''
asS'5956'
p3002
(lp3003
S'56-59-7'
p3004
aS''
asS'5959'
p3005
(lp3006
S'56-75-7'
p3007
aS'56-75-7'
p3008
aS''
asS'3964'
p3009
(lp3010
S'1977-10-2'
p3011
aS''
asS'5794'
p3012
(lp3013
S'51-03-6'
p3014
aS''
asS'5793'
p3015
(lp3016
S'50-99-7'
p3017
aS''
asS'5342'
p3018
(lp3019
S'57-96-5'
p3020
aS''
asS'5790'
p3021
(lp3022
S'50-91-9'
p3023
aS''
asS'3639'
p3024
(lp3025
S'58-93-5'
p3026
aS''
asS'3637'
p3027
(lp3028
S'86-54-4'
p3029
aS''
asS'3631'
p3030
(lp3031
S'103548-82-9'
p3032
aS''
asS'848'
p3033
(lp3034
S'470-29-1'
p3035
aS''
asS'2345'
p3036
(lp3037
S'120-51-4'
p3038
aS'120-51-4'
p3039
aS''
asS'2347'
p3040
(lp3041
S'85-68-7'
p3042
aS''
asS'4612'
p3043
(lp3044
S'21738-42-1'
p3045
aS''
asS'2341'
p3046
(lp3047
S'156-08-1'
p3048
aS''
asS'2343'
p3049
(lp3050
S'91-33-8'
p3051
aS''
asS'2342'
p3052
(lp3053
S'63-12-7'
p3054
aS''
asS'4614'
p3055
(lp3056
S'21256-18-8'
p3057
aS''
asS'3372'
p3058
(lp3059
S'69-23-8'
p3060
aS''
asS'3702'
p3061
(lp3062
S'26807-65-8'
p3063
aS''
asS'4460'
p3064
(lp3065
S'56391-56-1'
p3066
aS''
asS'4668'
p3067
(lp3068
S'373-49-9'
p3069
aS'2091-29-4'
p3070
aS''
asS'948'
p3071
(lp3072
S'10024-97-2'
p3073
aS'10024-97-2'
p3074
aS'10024-97-2'
p3075
aS''
asS'949'
p3076
(lp3077
S'121-69-7'
p3078
aS'121-69-7'
p3079
aS'121-69-7'
p3080
aS''
asS'4917'
p3081
(lp3082
S'58-38-8'
p3083
aS''
asS'4914'
p3084
(lp3085
S'59-46-1'
p3086
aS''
asS'4912'
p3087
(lp3088
S'23288-49-5'
p3089
aS''
asS'4913'
p3090
(lp3091
S'51-06-9'
p3092
aS''
asS'3415'
p3093
(lp3094
S'63585-09-1'
p3095
aS''
asS'135'
p3096
(lp3097
S'99-96-7'
p3098
aS''
asS'4868'
p3099
(lp3100
S'1405-20-5'
p3101
aS''
asS'1930'
p3102
(lp3103
S'301-02-0'
p3104
aS''
asS'3562'
p3105
(lp3106
S'151-67-7'
p3107
aS'151-67-7'
p3108
aS'151-67-7'
p3109
aS''
asS'3563'
p3110
(lp3111
S'59128-97-1'
p3112
aS''
asS'3561'
p3113
(lp3114
S'777-11-7'
p3115
aS''
asS'4485'
p3116
(lp3117
S'21829-25-4'
p3118
aS''
asS'4488'
p3119
(lp3120
S'4394-00-7'
p3121
aS''
asS'2901'
p3122
(lp3123
S'52-52-8'
p3124
aS''
asS'2907'
p3125
(lp3126
S'50-18-0'
p3127
aS''
asS'2905'
p3128
(lp3129
S'512-15-2'
p3130
aS''
asS'2909'
p3131
(lp3132
S'59865-13-3'
p3133
aS''
asS'700'
p3134
(lp3135
S'141-43-5'
p3136
aS'141-43-5'
p3137
aS'141-43-5'
p3138
aS'141-43-5'
p3139
aS''
asS'702'
p3140
(lp3141
S'64-17-5'
p3142
aS'64-17-5'
p3143
aS'64-17-5'
p3144
aS'64-17-5'
p3145
aS''
asS'703'
p3146
(lp3147
S'146-14-5'
p3148
aS''
asS'86'
p3149
(lp3150
S'548-93-6'
p3151
aS''
asS'5311'
p3152
(lp3153
S'149647-78-9'
p3154
aS''
asS'5314'
p3155
(lp3156
S'306-40-1'
p3157
aS''
asS'586'
p3158
(lp3159
S'57-00-1'
p3160
aS''
asS'3152'
p3161
(lp3162
S'120014-06-4'
p3163
aS''
asS'3151'
p3164
(lp3165
S'57808-66-9'
p3166
aS''
asS'3150'
p3167
(lp3168
S'14277-97-5'
p3169
aS''
asS'3157'
p3170
(lp3171
S'74191-85-8'
p3172
aS''
asS'3156'
p3173
(lp3174
S'309-29-5'
p3175
aS''
asS'2833'
p3176
(lp3177
S'64-86-8'
p3178
aS''
asS'5407'
p3179
(lp3180
S'968-93-4'
p3181
aS''
asS'5405'
p3182
(lp3183
S'50679-08-8'
p3184
aS''
asS'5403'
p3185
(lp3186
S'23031-25-6'
p3187
aS''
asS'5401'
p3188
(lp3189
S'63590-64-7'
p3190
aS''
asS'454'
p3191
(lp3192
S'124-13-0'
p3193
aS''
asS'58'
p3194
(lp3195
S'600-18-0'
p3196
aS''
asS'5541'
p3197
(lp3198
S'102-76-1'
p3199
aS''
asS'5546'
p3200
(lp3201
S'396-01-0'
p3202
aS''
asS'3089'
p3203
(lp3204
S'7456-24-8'
p3205
aS''
asS'3081'
p3206
(lp3207
S'695-53-4'
p3208
aS''
asS'311'
p3209
(lp3210
S'77-92-9'
p3211
aS'77-92-9'
p3212
aS''
asS'3369'
p3213
(lp3214
S'3900-31-0'
p3215
aS''
asS'5897'
p3216
(lp3217
S'53-96-3'
p3218
aS'53-96-3'
p3219
aS''
asS'3883'
p3220
(lp3221
S'103577-45-3'
p3222
aS''
asS'2481'
p3223
(lp3224
S'77-26-9'
p3225
aS''
asS'4919'
p3226
(lp3227
S'77-37-2'
p3228
aS''
asS'4916'
p3229
(lp3230
S'72332-33-3'
p3231
aS''
asS'947'
p3232
(lp3233
S'7727-37-9'
p3234
aS''
asS'944'
p3235
(lp3236
S'68412-17-9'
p3237
aS'7697-37-2'
p3238
aS'7697-37-2'
p3239
aS'7697-37-2'
p3240
aS''
asS'4915'
p3241
(lp3242
S'671-16-9'
p3243
aS''
asS'942'
p3244
(lp3245
S'54-11-5'
p3246
aS'54-11-5'
p3247
aS'54-11-5'
p3248
aS''
asS'943'
p3249
(lp3250
S'14797-55-8'
p3251
aS''
asS'4911'
p3252
(lp3253
S'57-66-9'
p3254
aS''
asS'4004'
p3255
(lp3256
S'121-75-5'
p3257
aS'121-75-5'
p3258
aS'121-75-5'
p3259
aS''
asS'3973'
p3260
(lp3261
S'154447-36-6'
p3262
aS''
asS'3715'
p3263
(lp3264
S'53-86-1'
p3265
aS''
asS'2659'
p3266
(lp3267
S'55268-75-2'
p3268
aS''
asS'2955'
p3269
(lp3270
S'80-08-0'
p3271
aS'80-08-0'
p3272
aS''
asS'4472'
p3273
(lp3274
S'51-12-7'
p3275
aS''
asS'4475'
p3276
(lp3277
S'27848-84-6'
p3278
aS''
asS'4474'
p3279
(lp3280
S'55985-32-5'
p3281
aS''
asS'4477'
p3282
(lp3283
S'50-65-7'
p3284
aS''
asS'4908'
p3285
(lp3286
S'90-34-6'
p3287
aS''
asS'6000'
p3288
(lp3289
S'6989-98-6'
p3290
aS''
asS'4678'
p3291
(lp3292
S'16485-10-2'
p3293
aS'81-13-0'
p3294
aS''
asS'2650'
p3295
(lp3296
S'78439-06-2'
p3297
aS''
asS'991'
p3298
(lp3299
S'56-38-2'
p3300
aS'56-38-2'
p3301
aS''
asS'5147'
p3302
(lp3303
S'65-45-2'
p3304
aS''
asS'999'
p3305
(lp3306
S'103-82-2'
p3307
aS''
asS'5143'
p3308
(lp3309
S'81-07-2'
p3310
aS''
asS'3403'
p3311
(lp3312
S'93957-54-1'
p3313
aS''
asS'3404'
p3314
(lp3315
S'54739-18-3'
p3316
aS''
asS'3407'
p3317
(lp3318
S'18053-31-1'
p3319
aS''
asS'3406'
p3320
(lp3321
S'7554-65-6'
p3322
aS''
asS'1021'
p3323
(lp3324
S'487-90-1'
p3325
aS''
asS'4875'
p3326
(lp3327
S'7681-11-0'
p3328
aS'7681-11-0'
p3329
aS''
asS'4870'
p3330
(lp3331
S'346-18-9'
p3332
aS''
asS'4873'
p3333
(lp3334
S'7447-40-7'
p3335
aS'7447-40-7'
p3336
aS''
asS'137'
p3337
(lp3338
S'106-60-5'
p3339
aS''
asS'2796'
p3340
(lp3341
S'637-07-0'
p3342
aS''
asS'3375'
p3343
(lp3344
S'2557-49-5'
p3345
aS''
asS'2794'
p3346
(lp3347
S'2030-63-9'
p3348
aS''
asS'2795'
p3349
(lp3350
S'791-35-5'
p3351
aS''
asS'3374'
p3352
(lp3353
S'42835-25-6'
p3354
aS''
asS'3410'
p3355
(lp3356
S'73573-87-2'
p3357
aS''
asS'3373'
p3358
(lp3359
S'78755-81-4'
p3360
aS''
asS'1183'
p3361
(lp3362
S'121-33-5'
p3363
aS''
asS'3371'
p3364
(lp3365
S'530-78-9'
p3366
aS''
asS'5090'
p3367
(lp3368
S'162011-90-7'
p3369
aS''
asS'5092'
p3370
(lp3371
S'61413-54-5'
p3372
aS''
asS'5095'
p3373
(lp3374
S'91374-21-9'
p3375
aS''
asS'4497'
p3376
(lp3377
S'66085-59-4'
p3378
aS''
asS'4495'
p3379
(lp3380
S'51803-78-2'
p3381
aS''
asS'4494'
p3382
(lp3383
S'75530-68-6'
p3384
aS''
asS'4493'
p3385
(lp3386
S'63612-50-0'
p3387
aS''
asS'4499'
p3388
(lp3389
S'63675-72-9'
p3390
aS''
asS'5327'
p3391
(lp3392
S'57-68-1'
p3393
aS''
asS'5325'
p3394
(lp3395
S'127-79-7'
p3396
aS''
asS'5322'
p3397
(lp3398
S'17784-12-2'
p3399
aS''
asS'5323'
p3400
(lp3401
S'122-11-2'
p3402
aS''
asS'5320'
p3403
(lp3404
S'144-80-9'
p3405
aS''
asS'729'
p3406
(lp3407
S'142-10-9'
p3408
aS''
asS'4367'
p3409
(lp3410
S'2149-70-4'
p3411
aS''
asS'2809'
p3412
(lp3413
S'23887-31-2'
p3414
aS''
asS'3168'
p3415
(lp3416
S'548-73-2'
p3417
aS''
asS'2802'
p3418
(lp3419
S'1622-61-3'
p3420
aS''
asS'2801'
p3421
(lp3422
S'303-49-1'
p3423
aS''
asS'3162'
p3424
(lp3425
S'469-21-6'
p3426
aS''
asS'5430'
p3427
(lp3428
S'148-79-8'
p3429
aS''
asS'5431'
p3430
(lp3431
S'154-87-0'
p3432
aS''
asS'3365'
p3433
(lp3434
S'86386-73-4'
p3435
aS''
asS'3360'
p3436
(lp3437
S'23779-99-9'
p3438
aS''
asS'938'
p3439
(lp3440
S'59-67-6'
p3441
aS'59-67-6'
p3442
aS''
asS'737'
p3443
(lp3444
S'10139-18-1'
p3445
aS''
asS'736'
p3446
(lp3447
S'90-80-2'
p3448
aS'90-80-2'
p3449
aS''
asS'460'
p3450
(lp3451
S'90-05-1'
p3452
aS''
asS'5556'
p3453
(lp3454
S'28911-01-5'
p3455
aS''
asS'5558'
p3456
(lp3457
S'75-25-2'
p3458
aS'75-25-2'
p3459
aS''
asS'5526'
p3460
(lp3461
S'1197-18-8'
p3462
aS''
asS'5883'
p3463
(lp3464
S'5818-17-7'
p3465
aS''
asS'5881'
p3466
(lp3467
S'53-43-0'
p3468
aS''
asS'5880'
p3469
(lp3470
S'53-42-9'
p3471
aS''
asS'3394'
p3472
(lp3473
S'5104-49-4'
p3474
aS''
asS'3180'
p3475
(lp3476
S'586-60-7'
p3477
aS''
asS'3182'
p3478
(lp3479
S'479-18-5'
p3480
aS''
asS'5755'
p3481
(lp3482
S'50-24-8'
p3483
aS''
asS'3397'
p3484
(lp3485
S'13311-84-7'
p3486
aS''
asS'5754'
p3487
(lp3488
S'50-23-7'
p3489
aS''
asS'3396'
p3490
(lp3491
S'1841-19-6'
p3492
aS''
asS'356'
p3493
(lp3494
S'111-65-9'
p3495
aS'111-65-9'
p3496
aS'111-65-9'
p3497
aS'111-65-9'
p3498
aS''
asS'3380'
p3499
(lp3500
S'1622-62-4'
p3501
aS''
asS'2329'
p3502
(lp3503
S'37106-97-1'
p3504
aS''
asS'289'
p3505
(lp3506
S'120-80-9'
p3507
aS'120-80-9'
p3508
aS'120-80-9'
p3509
aS'120-80-9'
p3510
aS''
asS'288'
p3511
(lp3512
S'461-06-3'
p3513
aS''
asS'281'
p3514
(lp3515
S'630-08-0'
p3516
aS'630-08-0'
p3517
aS'630-08-0'
p3518
aS''
asS'280'
p3519
(lp3520
S'124-38-9'
p3521
aS'124-38-9'
p3522
aS'124-38-9'
p3523
aS''
asS'285'
p3524
(lp3525
S'2921-14-4'
p3526
aS''
asS'284'
p3527
(lp3528
S'64-18-6'
p3529
aS'64-18-6'
p3530
aS'64-18-6'
p3531
aS'64-18-6'
p3532
aS''
asS'286'
p3533
(lp3534
S'2921-14-4'
p3535
aS''
asS'3760'
p3536
(lp3537
S'27523-40-6'
p3538
aS''
asS'3762'
p3539
(lp3540
S'530-08-5'
p3541
aS''
asS'3763'
p3542
(lp3543
S'26675-46-7'
p3544
aS''
asS'3767'
p3545
(lp3546
S'54-85-3'
p3547
aS''
asS'263'
p3548
(lp3549
S'71-36-3'
p3550
aS'71-36-3'
p3551
aS'71-36-3'
p3552
aS'71-36-3'
p3553
aS''
asS'261'
p3554
(lp3555
S'123-72-8'
p3556
aS''
asS'260'
p3557
(lp3558
S'10035-10-6'
p3559
aS'10035-10-6'
p3560
aS'10035-10-6'
p3561
aS''
asS'264'
p3562
(lp3563
S'107-92-6'
p3564
aS'107-92-6'
p3565
aS''
asS'4649'
p3566
(lp3567
S'65-49-6'
p3568
aS''
asS'4642'
p3569
(lp3570
S'125-53-1'
p3571
aS''
asS'4641'
p3572
(lp3573
S'129-20-4'
p3574
aS''
asS'4644'
p3575
(lp3576
S'2465-59-0'
p3577
aS''
asS'2256'
p3578
(lp3579
S'1912-24-9'
p3580
aS'1912-24-9'
p3581
aS''
asS'988'
p3582
(lp3583
S'79-83-4'
p3584
aS''
asS'2474'
p3585
(lp3586
S'2180-92-9'
p3587
aS''
asS'2471'
p3588
(lp3589
S'28395-03-1'
p3590
aS''
asS'2470'
p3591
(lp3592
S'92953-54-3'
p3593
aS''
asS'5152'
p3594
(lp3595
S'89365-50-4'
p3596
aS''
asS'2789'
p3597
(lp3598
S'22316-47-8'
p3599
aS''
asS'2788'
p3600
(lp3601
S'130-26-7'
p3602
aS''
asS'3687'
p3603
(lp3604
S'54-42-2'
p3605
aS''
asS'5734'
p3606
(lp3607
S'68291-97-4'
p3608
aS''
asS'641'
p3609
(lp3610
S'190079-18-6'
p3611
aS''
asS'2678'
p3612
(lp3613
S'83881-51-0'
p3614
aS''
asS'5732'
p3615
(lp3616
S'82626-48-0'
p3617
aS''
asS'2564'
p3618
(lp3619
S'486-16-8'
p3620
aS''
asS'5333'
p3621
(lp3622
S'63-74-1'
p3623
aS''
asS'5335'
p3624
(lp3625
S'526-08-9'
p3626
aS''
asS'5336'
p3627
(lp3628
S'144-83-2'
p3629
aS'144-83-2'
p3630
aS''
asS'1986'
p3631
(lp3632
S'59-66-5'
p3633
aS''
asS'1983'
p3634
(lp3635
S'103-90-2'
p3636
aS'103-90-2'
p3637
aS''
asS'1639'
p3638
(lp3639
S'61-82-5'
p3640
aS'61-82-5'
p3641
aS''
asS'3219'
p3642
(lp3643
S'87233-61-2'
p3644
aS''
asS'1989'
p3645
(lp3646
S'968-81-0'
p3647
aS''
asS'2816'
p3648
(lp3649
S'24166-13-0'
p3650
aS''
asS'2811'
p3651
(lp3652
S'33671-46-4'
p3653
aS''
asS'2812'
p3654
(lp3655
S'23593-75-1'
p3656
aS''
asS'564'
p3657
(lp3658
S'60-32-2'
p3659
aS''
asS'2818'
p3660
(lp3661
S'5786-21-0'
p3662
aS''
asS'5429'
p3663
(lp3664
S'83-67-0'
p3665
aS''
asS'5426'
p3666
(lp3667
S'50-35-1'
p3668
aS''
asS'727'
p3669
(lp3670
S'58-89-9'
p3671
aS'58-89-9'
p3672
aS'58-89-9'
p3673
aS''
asS'5995'
p3674
(lp3675
S'57-85-2'
p3676
aS''
asS'1486'
p3677
(lp3678
S'94-75-7'
p3679
aS'94-75-7'
p3680
aS'94-75-7'
p3681
aS''
asS'5994'
p3682
(lp3683
S'57-83-0'
p3684
aS''
asS'49'
p3685
(lp3686
S'759-05-7'
p3687
aS''
asS'5798'
p3688
(lp3689
S'51-17-2'
p3690
aS''
asS'1292'
p3691
(lp3692
S'90-64-2'
p3693
aS''
asS'3301'
p3694
(lp3695
S'107-15-3'
p3696
aS'107-15-3'
p3697
aS'107-15-3'
p3698
aS''
asS'1567'
p3699
(lp3700
S'60-24-2'
p3701
aS'60-24-2'
p3702
aS''
asS'2784'
p3703
(lp3704
S'7020-55-5'
p3705
aS''
asS'5125'
p3706
(lp3707
S'78-48-8'
p3708
aS''
asS'964'
p3709
(lp3710
S'1113-60-6'
p3711
aS''
asS'5853'
p3712
(lp3713
S'52-68-6'
p3714
aS''
as.