(dp1
S'564'
p2
(lp3
S'60-32-2'
p4
aS''
asS'8282'
p5
(lp6
S'115-70-8'
p7
aS''
asS'4020'
p8
(lp9
S'22232-71-9'
p10
aS''
asS'8201'
p11
(lp12
S'112-61-8'
p13
aS''
asS'5988'
p14
(lp15
S'57-50-1'
p16
aS'57-50-1'
p17
aS'57-50-1'
p18
aS'57-50-1'
p19
aS''
asS'5983'
p20
(lp21
S'57-47-6'
p22
aS''
asS'5987'
p23
(lp24
S'5329-14-6'
p25
aS''
asS'10895'
p26
(lp27
S'540-42-1'
p28
aS''
asS'7517'
p29
(lp30
S'100-64-1'
p31
aS''
asS'7516'
p32
(lp33
S'100-63-0'
p34
aS'100-63-0'
p35
aS'100-63-0'
p36
aS''
asS'7515'
p37
(lp38
S'100-61-8'
p39
aS'100-61-8'
p40
aS''
asS'340'
p41
(lp42
S'488-17-5'
p43
aS''
asS'342'
p44
(lp45
S'108-39-4'
p46
aS'108-39-4'
p47
aS'108-39-4'
p48
aS''
asS'3998'
p49
(lp50
S'138-39-6'
p51
aS''
asS'3890'
p52
(lp53
S'130209-82-4'
p54
aS''
asS'7519'
p55
(lp56
S'100-66-3'
p57
aS''
asS'595'
p58
(lp59
S'56-89-3'
p60
aS'56-89-3'
p61
aS''
asS'7479'
p62
(lp63
S'100-10-7'
p64
aS''
asS'6354'
p65
(lp66
S'75-21-8'
p67
aS'75-21-8'
p68
aS'75-21-8'
p69
aS''
asS'4685'
p70
(lp71
S'106-46-7'
p72
aS'106-46-7'
p73
aS'106-46-7'
p74
aS''
asS'4114'
p75
(lp76
S'298-81-7'
p77
aS''
asS'10967'
p78
(lp79
S'542-88-1'
p80
aS''
asS'6794'
p81
(lp82
S'85-00-7'
p83
aS'2764-72-9'
p84
aS''
asS'6795'
p85
(lp86
S'2764-72-9'
p87
aS''
asS'4737'
p88
(lp89
S'76-74-4'
p90
aS''
asS'2318'
p91
(lp92
S'23602-78-0'
p93
aS''
asS'4735'
p94
(lp95
S'100-33-4'
p96
aS''
asS'2315'
p97
(lp98
S'73-48-3'
p99
aS''
asS'6720'
p100
(lp101
S'82-68-8'
p102
aS''
asS'5850'
p103
(lp104
S'144-44-5'
p105
aS''
asS'5852'
p106
(lp107
S'52-67-5'
p108
aS''
asS'299'
p109
(lp110
S'143-50-0'
p111
aS'143-50-0'
p112
aS''
asS'297'
p113
(lp114
S'74-82-8'
p115
aS'8006-14-2'
p116
aS'74-82-8'
p117
aS''
asS'294'
p118
(lp119
S'69-79-4'
p120
aS'69-79-4'
p121
aS''
asS'8302'
p122
(lp123
S'116-15-4'
p124
aS''
asS'3776'
p125
(lp126
S'67-63-0'
p127
aS'67-63-0'
p128
aS'67-63-0'
p129
aS''
asS'3775'
p130
(lp131
S'7492-32-2'
p132
aS''
asS'3779'
p133
(lp134
S'7683-59-2'
p135
aS''
asS'4021'
p136
(lp137
S'89-25-8'
p138
aS''
asS'6292'
p139
(lp140
S'72-44-6'
p141
aS''
asS'274'
p142
(lp143
S'60-92-4'
p144
aS''
asS'4650'
p145
(lp146
S'106-51-4'
p147
aS'106-51-4'
p148
aS'106-51-4'
p149
aS''
asS'277'
p150
(lp151
S'463-77-4'
p152
aS''
asS'2786'
p153
(lp154
S'18323-44-9'
p155
aS''
asS'6587'
p156
(lp157
S'79-24-3'
p158
aS'79-24-3'
p159
aS'79-24-3'
p160
aS''
asS'6586'
p161
(lp162
S'79-22-1'
p163
aS''
asS'7993'
p164
(lp165
S'109-55-7'
p166
aS''
asS'827'
p167
(lp168
S'488-81-3'
p169
aS''
asS'6584'
p170
(lp171
S'79-20-9'
p172
aS'79-20-9'
p173
aS'79-20-9'
p174
aS''
asS'7991'
p175
(lp176
S'109-52-4'
p177
aS'109-52-4'
p178
aS''
asS'7888'
p179
(lp180
S'107-75-5'
p181
aS''
asS'2268'
p182
(lp183
S'86-50-0'
p184
aS'86-50-0'
p185
aS''
asS'2269'
p186
(lp187
S'83905-01-5'
p188
aS''
asS'8207'
p189
(lp190
S'112-70-9'
p191
aS''
asS'7881'
p192
(lp193
S'107-66-4'
p194
aS'107-66-4'
p195
aS'107-66-4'
p196
aS''
asS'11761'
p197
(lp198
S'602-01-7'
p199
aS''
asS'2266'
p200
(lp201
S'123-99-9'
p202
aS'123-99-9'
p203
aS''
asS'2267'
p204
(lp205
S'58581-89-8'
p206
aS''
asS'7886'
p207
(lp208
S'107-73-3'
p209
aS''
asS'2442'
p210
(lp211
S'3572-43-8'
p212
aS''
asS'2441'
p213
(lp214
S'1812-30-2'
p215
aS''
asS'2446'
p216
(lp217
S'4093-35-0'
p218
aS''
asS'2444'
p219
(lp220
S'118-23-0'
p221
aS''
asS'9257'
p222
(lp223
S'288-88-0'
p224
aS''
asS'9253'
p225
(lp226
S'287-92-3'
p227
aS'68476-56-2'
p228
aS'287-92-3'
p229
aS'287-92-3'
p230
aS''
asS'7865'
p231
(lp232
S'107-31-3'
p233
aS'107-31-3'
p234
aS'107-31-3'
p235
aS''
asS'7864'
p236
(lp237
S'107-30-2'
p238
aS'107-30-2'
p239
aS'107-30-2'
p240
aS''
asS'7863'
p241
(lp242
S'107-29-9'
p243
aS''
asS'7861'
p244
(lp245
S'107-25-5'
p246
aS''
asS'7860'
p247
(lp248
S'107-22-2'
p249
aS'107-22-2'
p250
aS''
asS'2816'
p251
(lp252
S'24166-13-0'
p253
aS''
asS'101'
p254
(lp255
S'100-83-4'
p256
aS''
asS'107'
p257
(lp258
S'501-52-0'
p259
aS''
asS'7869'
p260
(lp261
S'107-40-4'
p262
aS''
asS'7868'
p263
(lp264
S'107-39-1'
p265
aS'25167-70-8'
p266
aS''
asS'4812'
p267
(lp268
S'84-80-0'
p269
aS''
asS'3152'
p270
(lp271
S'120014-06-4'
p272
aS''
asS'3151'
p273
(lp274
S'57808-66-9'
p275
aS''
asS'6378'
p276
(lp277
S'75-56-9'
p278
aS'75-56-9'
p279
aS'75-56-9'
p280
aS''
asS'6379'
p281
(lp282
S'75-57-0'
p283
aS''
asS'6370'
p284
(lp285
S'75-43-4'
p286
aS'75-43-4'
p287
aS''
asS'6372'
p288
(lp289
S'75-45-6'
p290
aS'75-45-6'
p291
aS'75-45-6'
p292
aS''
asS'6373'
p293
(lp294
S'75-46-7'
p295
aS''
asS'6374'
p296
(lp297
S'75-47-8'
p298
aS'75-47-8'
p299
aS''
asS'6375'
p300
(lp301
S'75-52-5'
p302
aS'75-52-5'
p303
aS'75-52-5'
p304
aS''
asS'6377'
p305
(lp306
S'75-55-8'
p307
aS'75-55-8'
p308
aS'75-55-8'
p309
aS''
asS'9320'
p310
(lp311
S'301-13-3'
p312
aS''
asS'9321'
p313
(lp314
S'302-01-2'
p315
aS'302-01-2'
p316
aS'302-01-2'
p317
aS''
asS'3519'
p318
(lp319
S'29110-47-2'
p320
aS''
asS'3518'
p321
(lp322
S'645-43-2'
p323
aS''
asS'7269'
p324
(lp325
S'95-93-2'
p326
aS''
asS'7268'
p327
(lp328
S'95-92-1'
p329
aS''
asS'8946'
p330
(lp331
S'144-19-4'
p332
aS''
asS'7265'
p333
(lp334
S'95-85-2'
p335
aS''
asS'7264'
p336
(lp337
S'95-84-1'
p338
aS''
asS'7267'
p339
(lp340
S'95-87-4'
p341
aS''
asS'3510'
p342
(lp343
S'109889-09-0'
p344
aS''
asS'3517'
p345
(lp346
S'5051-62-7'
p347
aS''
asS'3516'
p348
(lp349
S'93-14-1'
p350
aS'93-14-1'
p351
aS''
asS'7628'
p352
(lp353
S'10043-35-3'
p354
aS''
asS'6011'
p355
(lp356
S'58-19-5'
p357
aS''
asS'2681'
p358
(lp359
S'57-09-0'
p360
aS''
asS'2682'
p361
(lp362
S'36653-82-4'
p363
aS''
asS'5407'
p364
(lp365
S'968-93-4'
p366
aS''
asS'6809'
p367
(lp368
S'85-41-6'
p369
aS''
asS'7394'
p370
(lp371
S'98-56-6'
p372
aS''
asS'6558'
p373
(lp374
S'78-81-9'
p375
aS''
asS'6804'
p376
(lp377
S'85-32-5'
p378
aS''
asS'6802'
p379
(lp380
S'118-00-3'
p381
aS''
asS'5405'
p382
(lp383
S'50679-08-8'
p384
aS''
asS'9740'
p385
(lp386
S'372-09-8'
p387
aS''
asS'10569'
p388
(lp389
S'8050-09-7'
p390
aS''
asS'5291'
p391
(lp392
S'152459-95-5'
p393
aS''
asS'96'
p394
(lp395
S'541-50-4'
p396
aS''
asS'5184'
p397
(lp398
S'51-34-3'
p399
aS''
asS'3209'
p400
(lp401
S'10417-94-4'
p402
aS''
asS'8839'
p403
(lp404
S'141-22-0'
p405
aS'141-22-0'
p406
aS''
asS'8838'
p407
(lp408
S'141-21-9'
p409
aS''
asS'8837'
p410
(lp411
S'141-18-4'
p412
aS''
asS'8836'
p413
(lp414
S'141-17-3'
p415
aS''
asS'8831'
p416
(lp417
S'141-04-8'
p418
aS''
asS'6471'
p419
(lp420
S'468-59-7'
p421
aS''
asS'8698'
p422
(lp423
S'136-60-7'
p424
aS''
asS'7677'
p425
(lp426
S'103-76-4'
p427
aS''
asS'7675'
p428
(lp429
S'103-74-2'
p430
aS''
asS'7672'
p431
(lp432
S'103-71-9'
p433
aS''
asS'7670'
p434
(lp435
S'103-69-5'
p436
aS''
asS'1198'
p437
(lp438
S'320-77-4'
p439
aS''
asS'3348'
p440
(lp441
S'83799-24-0'
p442
aS''
asS'7078'
p443
(lp444
S'92-15-9'
p445
aS''
asS'3342'
p446
(lp447
S'34597-40-5'
p448
aS''
asS'3343'
p449
(lp450
S'13392-18-2'
p451
aS''
asS'5452'
p452
(lp453
S'50-52-2'
p454
aS''
asS'3341'
p455
(lp456
S'67227-57-0'
p457
aS''
asS'5454'
p458
(lp459
S'5591-45-7'
p460
aS''
asS'5455'
p461
(lp462
S'137-26-8'
p463
aS'137-26-8'
p464
aS'137-26-8'
p465
aS''
asS'3344'
p466
(lp467
S'5053-06-5'
p468
aS''
asS'3345'
p469
(lp470
S'437-38-7'
p471
aS''
asS'1752'
p472
(lp473
S'25154-52-3'
p474
aS''
asS'4259'
p475
(lp476
S'354812-41-2'
p477
aS''
asS'1176'
p478
(lp479
S'57-13-6'
p480
aS'57-13-6'
p481
aS''
asS'1175'
p482
(lp483
S'69-93-2'
p484
aS'69-93-2'
p485
aS''
asS'1174'
p486
(lp487
S'66-22-8'
p488
aS''
asS'1172'
p489
(lp490
S'58-97-9'
p491
aS''
asS'8165'
p492
(lp493
S'112-15-2'
p494
aS''
asS'8168'
p495
(lp496
S'112-18-5'
p497
aS'68391-04-8'
p498
aS''
asS'6979'
p499
(lp500
S'89-63-4'
p501
aS''
asS'5533'
p502
(lp503
S'19794-93-5'
p504
aS''
asS'5530'
p505
(lp506
S'155-09-9'
p507
aS''
asS'5538'
p508
(lp509
S'302-79-4'
p510
aS'4759-48-2'
p511
aS''
asS'8723'
p512
(lp513
S'137-32-6'
p514
aS''
asS'8722'
p515
(lp516
S'137-30-4'
p517
aS''
asS'11169'
p518
(lp519
S'556-67-2'
p520
aS''
asS'984'
p521
(lp522
S'629-80-1'
p523
aS''
asS'11074'
p524
(lp525
S'550-44-7'
p526
aS''
asS'11164'
p527
(lp528
S'556-52-5'
p529
aS'556-52-5'
p530
aS''
asS'1573'
p531
(lp532
S'362-07-2'
p533
aS''
asS'7369'
p534
(lp535
S'98-09-9'
p536
aS''
asS'681'
p537
(lp538
S'51-61-6'
p539
aS''
asS'7185'
p540
(lp541
S'94-28-0'
p542
aS''
asS'7187'
p543
(lp544
S'94-36-0'
p545
aS'94-36-0'
p546
aS'94-36-0'
p547
aS''
asS'8053'
p548
(lp549
S'110-46-3'
p550
aS''
asS'8385'
p551
(lp552
S'119-27-7'
p553
aS''
asS'2659'
p554
(lp555
S'55268-75-2'
p556
aS''
asS'8050'
p557
(lp558
S'110-42-9'
p559
aS''
asS'8549'
p560
(lp561
S'130-95-0'
p562
aS'56-54-2'
p563
aS''
asS'8019'
p564
(lp565
S'109-86-4'
p566
aS'109-86-4'
p567
aS'109-86-4'
p568
aS'109-86-4'
p569
aS''
asS'8016'
p570
(lp571
S'109-83-1'
p572
aS''
asS'871'
p573
(lp574
S'1109-28-0'
p575
aS'9004-53-9'
p576
aS''
asS'8012'
p577
(lp578
S'109-79-5'
p579
aS'109-79-5'
p580
aS'109-79-5'
p581
aS''
asS'8010'
p582
(lp583
S'109-77-3'
p584
aS'109-77-3'
p585
aS'109-77-3'
p586
aS''
asS'7456'
p587
(lp588
S'99-76-3'
p589
aS''
asS'4592'
p590
(lp591
S'101622-51-9'
p592
aS''
asS'6570'
p593
(lp594
S'78-94-4'
p595
aS''
asS'6571'
p596
(lp597
S'78-95-5'
p598
aS'78-95-5'
p599
aS''
asS'7452'
p600
(lp601
S'99-65-0'
p602
aS'99-65-0'
p603
aS''
asS'7453'
p604
(lp605
S'99-71-8'
p606
aS''
asS'6574'
p607
(lp608
S'79-00-5'
p609
aS'79-00-5'
p610
aS'79-00-5'
p611
aS''
asS'6575'
p612
(lp613
S'79-01-6'
p614
aS'79-01-6'
p615
aS'79-01-6'
p616
aS''
asS'5625'
p617
(lp618
S'136817-59-9'
p619
aS''
asS'6579'
p620
(lp621
S'79-06-1'
p622
aS'79-06-1'
p623
aS'79-06-1'
p624
aS''
asS'7458'
p625
(lp626
S'99-79-6'
p627
aS''
asS'7459'
p628
(lp629
S'99-82-1'
p630
aS''
asS'7695'
p631
(lp632
S'104-21-2'
p633
aS''
asS'7697'
p634
(lp635
S'104-29-0'
p636
aS''
asS'403'
p637
(lp638
S'123-30-8'
p639
aS''
asS'402'
p640
(lp641
S'7704-34-9'
p642
aS'7783-06-4'
p643
aS'9035-99-8'
p644
aS'7783-06-4'
p645
aS'7783-06-4'
p646
aS''
asS'7699'
p647
(lp648
S'104-31-4'
p649
aS''
asS'5995'
p650
(lp651
S'57-85-2'
p652
aS''
asS'4030'
p653
(lp654
S'31431-39-7'
p655
aS''
asS'4033'
p656
(lp657
S'51-75-2'
p658
aS''
asS'4032'
p659
(lp660
S'60-40-2'
p661
aS''
asS'5991'
p662
(lp663
S'57-63-6'
p664
aS''
asS'4034'
p665
(lp666
S'569-65-3'
p667
aS''
asS'4037'
p668
(lp669
S'644-62-2'
p670
aS''
asS'10889'
p671
(lp672
S'540-10-3'
p673
aS''
asS'4599'
p674
(lp675
S'96829-58-2'
p676
aS''
asS'379'
p677
(lp678
S'124-07-2'
p679
aS'124-07-2'
p680
aS''
asS'378'
p681
(lp682
S'330-13-2'
p683
aS''
asS'5078'
p684
(lp685
S'145202-66-0'
p686
aS''
asS'7521'
p687
(lp688
S'100-69-6'
p689
aS''
asS'4842'
p690
(lp691
S'54-91-1'
p692
aS''
asS'7525'
p693
(lp694
S'100-74-3'
p695
aS'100-74-3'
p696
aS'100-74-3'
p697
aS''
asS'3631'
p698
(lp699
S'103548-82-9'
p700
aS''
asS'985'
p701
(lp702
S'57-10-3'
p703
aS'57-10-3'
p704
aS''
asS'5665'
p705
(lp706
S'60643-86-9'
p707
aS''
asS'5431'
p708
(lp709
S'154-87-0'
p710
aS''
asS'6140'
p711
(lp712
S'63-91-2'
p713
aS''
asS'6144'
p714
(lp715
S'64-02-8'
p716
aS''
asS'398'
p717
(lp718
S'79-46-9'
p719
aS'79-46-9'
p720
aS'79-46-9'
p721
aS''
asS'8110'
p722
(lp723
S'111-36-4'
p724
aS''
asS'7047'
p725
(lp726
S'91-22-5'
p727
aS''
asS'2309'
p728
(lp729
S'39552-01-7'
p730
aS''
asS'6780'
p731
(lp732
S'84-65-1'
p733
aS''
asS'10972'
p734
(lp735
S'543-24-8'
p736
aS''
asS'6782'
p737
(lp738
S'84-69-5'
p739
aS''
asS'6787'
p740
(lp741
S'68515-45-7'
p742
aS''
asS'6786'
p743
(lp744
S'84-75-3'
p745
aS''
asS'4725'
p746
(lp747
S'39809-25-1'
p748
aS''
asS'4724'
p749
(lp750
S'36507-48-9'
p751
aS''
asS'4727'
p752
(lp753
S'52-67-5'
p754
aS''
asS'4723'
p755
(lp756
S'2152-34-3'
p757
aS''
asS'8117'
p758
(lp759
S'111-46-6'
p760
aS''
asS'11289'
p761
(lp762
S'569-57-3'
p763
aS''
asS'5323'
p764
(lp765
S'122-11-2'
p766
aS''
asS'6936'
p767
(lp768
S'88-53-9'
p769
aS''
asS'3748'
p770
(lp771
S'54-92-2'
p772
aS''
asS'3749'
p773
(lp774
S'138402-11-6'
p775
aS''
asS'3746'
p776
(lp777
S'60205-81-4'
p778
aS''
asS'5853'
p779
(lp780
S'52-68-6'
p781
aS''
asS'7713'
p782
(lp783
S'104-66-5'
p784
aS''
asS'244'
p785
(lp786
S'100-51-6'
p787
aS'100-51-6'
p788
aS''
asS'4622'
p789
(lp790
S'20559-55-1'
p791
aS''
asS'241'
p792
(lp793
S'71-43-2'
p794
aS'71-43-2'
p795
aS'71-43-2'
p796
aS''
asS'240'
p797
(lp798
S'100-52-7'
p799
aS''
asS'243'
p800
(lp801
S'65-85-0'
p802
aS'65-85-0'
p803
aS''
asS'7715'
p804
(lp805
S'104-68-7'
p806
aS''
asS'7714'
p807
(lp808
S'104-67-6'
p809
aS''
asS'10509'
p810
(lp811
S'509-14-8'
p812
aS'509-14-8'
p813
aS''
asS'2271'
p814
(lp815
S'37091-66-0'
p816
aS''
asS'2273'
p817
(lp818
S'27589-33-9'
p819
aS''
asS'11750'
p820
(lp821
S'600-25-9'
p822
aS'600-25-9'
p823
aS''
asS'7492'
p824
(lp825
S'100-25-4'
p826
aS'100-25-4'
p827
aS''
asS'11597'
p828
(lp829
S'592-41-6'
p830
aS'592-41-6'
p831
aS''
asS'11590'
p832
(lp833
S'592-01-8'
p834
aS''
asS'2522'
p835
(lp836
S'112965-21-6'
p837
aS''
asS'11598'
p838
(lp839
S'592-42-7'
p840
aS''
asS'9248'
p841
(lp842
S'286-99-7'
p843
aS''
asS'8179'
p844
(lp845
S'112-36-7'
p846
aS''
asS'2451'
p847
(lp848
S'57801-81-7'
p849
aS''
asS'9246'
p850
(lp851
S'286-20-4'
p852
aS''
asS'7852'
p853
(lp854
S'68187-44-0'
p855
aS''
asS'7853'
p856
(lp857
S'107-11-9'
p858
aS''
asS'7850'
p859
(lp860
S'107-05-1'
p861
aS'107-05-1'
p862
aS'107-05-1'
p863
aS''
asS'7857'
p864
(lp865
S'107-16-4'
p866
aS'107-16-4'
p867
aS'107-16-4'
p868
aS''
asS'179'
p869
(lp870
S'513-86-0'
p871
aS'513-86-0'
p872
aS''
asS'7855'
p873
(lp874
S'107-13-1'
p875
aS'107-13-1'
p876
aS'107-13-1'
p877
aS''
asS'177'
p878
(lp879
S'75-07-0'
p880
aS'75-07-0'
p881
aS'75-07-0'
p882
aS''
asS'176'
p883
(lp884
S'64-19-7'
p885
aS'64-19-7'
p886
aS'64-19-7'
p887
aS'64-19-7'
p888
aS''
asS'7858'
p889
(lp890
S'107-18-6'
p891
aS'107-18-6'
p892
aS'107-18-6'
p893
aS''
asS'174'
p894
(lp895
S'107-21-1'
p896
aS'107-21-1'
p897
aS'107-21-1'
p898
aS''
asS'173'
p899
(lp900
S'4707-58-8'
p901
aS''
asS'3698'
p902
(lp903
S'60719-84-8'
p904
aS''
asS'4539'
p905
(lp906
S'70458-96-7'
p907
aS''
asS'4828'
p908
(lp909
S'13523-86-9'
p910
aS''
asS'4829'
p911
(lp912
S'111025-46-8'
p913
aS''
asS'3690'
p914
(lp915
S'3778-73-2'
p916
aS''
asS'9047'
p917
(lp918
S'152-47-6'
p919
aS''
asS'3696'
p920
(lp921
S'50-49-7'
p922
aS''
asS'7980'
p923
(lp924
S'109-17-1'
p925
aS''
asS'6369'
p926
(lp927
S'75-38-7'
p928
aS'75-38-7'
p929
aS'75-38-7'
p930
aS''
asS'6368'
p931
(lp932
S'75-37-6'
p933
aS''
asS'7985'
p934
(lp935
S'109-31-9'
p936
aS''
asS'7986'
p937
(lp938
S'109-43-3'
p939
aS''
asS'6363'
p940
(lp941
S'75-31-0'
p942
aS'75-31-0'
p943
aS'75-31-0'
p944
aS''
asS'6360'
p945
(lp946
S'75-28-5'
p947
aS'75-28-5'
p948
aS'75-28-5'
p949
aS''
asS'6366'
p950
(lp951
S'75-35-4'
p952
aS'75-35-4'
p953
aS'75-35-4'
p954
aS''
asS'6365'
p955
(lp956
S'75-34-3'
p957
aS'75-34-3'
p958
aS'75-34-3'
p959
aS''
asS'6364'
p960
(lp961
S'75-33-2'
p962
aS''
asS'10401'
p963
(lp964
S'24980-41-4'
p965
aS'502-44-3'
p966
aS''
asS'9330'
p967
(lp968
S'302-40-9'
p969
aS''
asS'3520'
p970
(lp971
S'113-00-8'
p972
aS''
asS'9623'
p973
(lp974
S'353-50-4'
p975
aS'353-50-4'
p976
aS''
asS'7219'
p977
(lp978
S'95-13-6'
p979
aS'95-13-6'
p980
aS'95-13-6'
p981
aS'95-13-6'
p982
aS''
asS'6384'
p983
(lp984
S'75-63-8'
p985
aS'75-63-8'
p986
aS''
asS'7211'
p987
(lp988
S'94-96-2'
p989
aS''
asS'3678'
p990
(lp991
S'150-59-4'
p992
aS''
asS'6215'
p993
(lp994
S'67-73-2'
p995
aS''
asS'6214'
p996
(lp997
S'67-72-1'
p998
aS'67-72-1'
p999
aS'67-72-1'
p1000
aS''
asS'6212'
p1001
(lp1002
S'67-66-3'
p1003
aS'67-66-3'
p1004
aS'67-66-3'
p1005
aS''
asS'6211'
p1006
(lp1007
S'67-52-7'
p1008
aS''
asS'6811'
p1009
(lp1010
S'85-44-9'
p1011
aS'85-44-9'
p1012
aS'85-44-9'
p1013
aS''
asS'6810'
p1014
(lp1015
S'85-43-8'
p1016
aS''
asS'6382'
p1017
(lp1018
S'75-61-6'
p1019
aS'75-61-6'
p1020
aS''
asS'6815'
p1021
(lp1022
S'85-60-9'
p1023
aS''
asS'6816'
p1024
(lp1025
S'85-61-0'
p1026
aS''
asS'9756'
p1027
(lp1028
S'373-02-4'
p1029
aS''
asS'9750'
p1030
(lp1031
S'372-75-8'
p1032
aS''
asS'3671'
p1033
(lp1034
S'50847-11-5'
p1035
aS''
asS'8913'
p1036
(lp1037
S'143-06-6'
p1038
aS''
asS'5195'
p1039
(lp1040
S'14611-51-9'
p1041
aS''
asS'3676'
p1042
(lp1043
S'137-58-6'
p1044
aS''
asS'1614'
p1045
(lp1046
S'4764-17-4'
p1047
aS''
asS'1615'
p1048
(lp1049
S'42542-10-9'
p1050
aS''
asS'5193'
p1051
(lp1052
S'76-73-3'
p1053
aS''
asS'4845'
p1054
(lp1055
S'38677-81-5'
p1056
aS''
asS'2378'
p1057
(lp1058
S'60628-96-8'
p1059
aS''
asS'8840'
p1060
(lp1061
S'141-23-1'
p1062
aS''
asS'8841'
p1063
(lp1064
S'141-24-2'
p1065
aS''
asS'8842'
p1066
(lp1067
S'106-22-9'
p1068
aS''
asS'8843'
p1069
(lp1070
S'141-27-5'
p1071
aS'5392-40-5'
p1072
aS''
asS'8846'
p1073
(lp1074
S'141-32-2'
p1075
aS'141-32-2'
p1076
aS'141-32-2'
p1077
aS''
asS'8847'
p1078
(lp1079
S'141-38-8'
p1080
aS''
asS'8914'
p1081
(lp1082
S'28473-21-4'
p1083
aS'28473-21-4'
p1084
aS''
asS'2879'
p1085
(lp1086
S'106-44-5'
p1087
aS'106-44-5'
p1088
aS'106-44-5'
p1089
aS'106-44-5'
p1090
aS''
asS'4534'
p1091
(lp1092
S'500-38-9'
p1093
aS''
asS'3596'
p1094
(lp1095
S'3511-16-8'
p1096
aS''
asS'3354'
p1097
(lp1098
S'15301-69-6'
p1099
aS''
asS'3357'
p1100
(lp1101
S'79660-72-3'
p1102
aS''
asS'3356'
p1103
(lp1104
S'54143-55-4'
p1105
aS''
asS'7660'
p1106
(lp1107
S'103-54-8'
p1108
aS''
asS'7666'
p1109
(lp1110
S'103-63-9'
p1111
aS''
asS'3598'
p1112
(lp1113
S'70-30-4'
p1114
aS''
asS'8857'
p1115
(lp1116
S'141-78-6'
p1117
aS'141-78-6'
p1118
aS'141-78-6'
p1119
aS''
asS'7064'
p1120
(lp1121
S'91-76-9'
p1122
aS''
asS'5447'
p1123
(lp1124
S'111-48-8'
p1125
aS''
asS'5446'
p1126
(lp1127
S'7519-74-6'
p1128
aS''
asS'7061'
p1129
(lp1130
S'91-66-7'
p1131
aS''
asS'7060'
p1132
(lp1133
S'91-63-4'
p1134
aS''
asS'11335'
p1135
(lp1136
S'576-26-1'
p1137
aS''
asS'6961'
p1138
(lp1139
S'89-05-4'
p1140
aS'89-05-4'
p1141
aS''
asS'6960'
p1142
(lp1143
S'89-04-3'
p1144
aS''
asS'1140'
p1145
(lp1146
S'108-88-3'
p1147
aS'108-88-3'
p1148
aS'108-88-3'
p1149
aS'108-88-3'
p1150
aS''
asS'6962'
p1151
(lp1152
S'89-08-7'
p1153
aS''
asS'1146'
p1154
(lp1155
S'75-50-3'
p1156
aS'75-50-3'
p1157
aS'75-50-3'
p1158
aS''
asS'1144'
p1159
(lp1160
S'4484-88-2'
p1161
aS''
asS'6966'
p1162
(lp1163
S'89-32-7'
p1164
aS''
asS'8154'
p1165
(lp1166
S'112-02-7'
p1167
aS''
asS'8152'
p1168
(lp1169
S'112-00-5'
p1170
aS''
asS'768'
p1171
(lp1172
S'74-90-8'
p1173
aS'74-90-8'
p1174
aS'74-90-8'
p1175
aS''
asS'8150'
p1176
(lp1177
S'111-96-6'
p1178
aS''
asS'8151'
p1179
(lp1180
S'111-97-7'
p1181
aS''
asS'2966'
p1182
(lp1183
S'1131-64-2'
p1184
aS''
asS'6358'
p1185
(lp1186
S'75-26-3'
p1187
aS''
asS'5509'
p1188
(lp1189
S'26171-23-3'
p1190
aS''
asS'5504'
p1191
(lp1192
S'59-98-3'
p1193
aS''
asS'5505'
p1194
(lp1195
S'64-77-7'
p1196
aS''
asS'5502'
p1197
(lp1198
S'22345-47-7'
p1199
aS''
asS'5503'
p1200
(lp1201
S'1156-19-0'
p1202
aS''
asS'8710'
p1203
(lp1204
S'137-03-1'
p1205
aS''
asS'8711'
p1206
(lp1207
S'137-05-3'
p1208
aS''
asS'7198'
p1209
(lp1210
S'3399-22-2'
p1211
aS'94-60-0'
p1212
aS''
asS'546'
p1213
(lp1214
S'4408-78-0'
p1215
aS'4408-78-0'
p1216
aS''
asS'547'
p1217
(lp1218
S'102-32-9'
p1219
aS''
asS'7197'
p1220
(lp1221
S'94-58-6'
p1222
aS''
asS'13'
p1223
(lp1224
S'120-82-1'
p1225
aS'120-82-1'
p1226
aS'120-82-1'
p1227
aS''
asS'11635'
p1228
(lp1229
S'593-45-3'
p1230
aS''
asS'8028'
p1231
(lp1232
S'109-99-9'
p1233
aS'109-99-9'
p1234
aS'109-99-9'
p1235
aS''
asS'8029'
p1236
(lp1237
S'110-00-9'
p1238
aS''
asS'8530'
p1239
(lp1240
S'130-15-4'
p1241
aS''
asS'8020'
p1242
(lp1243
S'109-87-5'
p1244
aS'109-87-5'
p1245
aS'109-87-5'
p1246
aS''
asS'8021'
p1247
(lp1248
S'109-89-7'
p1249
aS'109-89-7'
p1250
aS'109-89-7'
p1251
aS''
asS'8025'
p1252
(lp1253
S'109-94-4'
p1254
aS'109-94-4'
p1255
aS''
asS'11026'
p1256
(lp1257
S'546-68-9'
p1258
aS''
asS'6569'
p1259
(lp1260
S'78-93-3'
p1261
aS'78-93-3'
p1262
aS'78-93-3'
p1263
aS''
asS'6568'
p1264
(lp1265
S'78-92-2'
p1266
aS'78-92-2'
p1267
aS'78-92-2'
p1268
aS'78-92-2'
p1269
aS''
asS'3048'
p1270
(lp1271
S'60-57-1'
p1272
aS'72-20-8'
p1273
aS'60-57-1'
p1274
aS'72-20-8'
p1275
aS''
asS'6565'
p1276
(lp1277
S'78-88-6'
p1278
aS''
asS'6564'
p1279
(lp1280
S'78-87-5'
p1281
aS'78-87-5'
p1282
aS'78-87-5'
p1283
aS'78-87-5'
p1284
aS''
asS'6567'
p1285
(lp1286
S'78-90-0'
p1287
aS''
asS'6566'
p1288
(lp1289
S'78-89-7'
p1290
aS''
asS'6561'
p1291
(lp1292
S'78-84-2'
p1293
aS''
asS'6560'
p1294
(lp1295
S'78-83-1'
p1296
aS'78-83-1'
p1297
aS'78-83-1'
p1298
aS''
asS'19'
p1299
(lp1300
S'303-38-8'
p1301
aS''
asS'7681'
p1302
(lp1303
S'103-83-3'
p1304
aS''
asS'4497'
p1305
(lp1306
S'66085-59-4'
p1307
aS''
asS'5472'
p1308
(lp1309
S'55142-85-3'
p1310
aS''
asS'2265'
p1311
(lp1312
S'446-86-6'
p1313
aS''
asS'6408'
p1314
(lp1315
S'75-88-7'
p1316
aS''
asS'5147'
p1317
(lp1318
S'65-45-2'
p1319
aS''
asS'3325'
p1320
(lp1321
S'76824-35-6'
p1322
aS''
asS'3827'
p1323
(lp1324
S'34580-14-8'
p1325
aS''
asS'3826'
p1326
(lp1327
S'66635-83-4'
p1328
aS''
asS'3825'
p1329
(lp1330
S'22071-15-4'
p1331
aS''
asS'3824'
p1332
(lp1333
S'853-34-9'
p1334
aS''
asS'3823'
p1335
(lp1336
S'65277-42-1'
p1337
aS''
asS'3821'
p1338
(lp1339
S'6740-88-1'
p1340
aS''
asS'5471'
p1341
(lp1342
S'34787-01-4'
p1343
aS''
asS'11568'
p1344
(lp1345
S'591-27-5'
p1346
aS''
asS'8445'
p1347
(lp1348
S'120-71-8'
p1349
aS''
asS'8447'
p1350
(lp1351
S'120-78-5'
p1352
aS''
asS'8441'
p1353
(lp1354
S'120-61-6'
p1355
aS''
asS'9528'
p1356
(lp1357
S'333-36-8'
p1358
aS''
asS'7569'
p1359
(lp1360
S'101-67-7'
p1361
aS''
asS'8449'
p1362
(lp1363
S'120-83-2'
p1364
aS''
asS'3042'
p1365
(lp1366
S'77-19-0'
p1367
aS''
asS'11369'
p1368
(lp1369
S'579-66-8'
p1370
aS''
asS'2762'
p1371
(lp1372
S'28657-80-9'
p1373
aS''
asS'7870'
p1374
(lp1375
S'107-41-5'
p1376
aS'107-41-5'
p1377
aS'107-41-5'
p1378
aS''
asS'2767'
p1379
(lp1380
S'15663-27-1'
p1381
aS''
asS'9521'
p1382
(lp1383
S'333-18-6'
p1384
aS''
asS'6332'
p1385
(lp1386
S'74-96-4'
p1387
aS'74-96-4'
p1388
aS'74-96-4'
p1389
aS''
asS'385'
p1390
(lp1391
S'111-16-0'
p1392
aS'111-16-0'
p1393
aS''
asS'6176'
p1394
(lp1395
S'65-47-4'
p1396
aS''
asS'6172'
p1397
(lp1398
S'65-29-2'
p1399
aS''
asS'7407'
p1400
(lp1401
S'98-83-9'
p1402
aS'98-83-9'
p1403
aS'98-83-9'
p1404
aS''
asS'6171'
p1405
(lp1406
S'65-22-5'
p1407
aS''
asS'6772'
p1408
(lp1409
S'84-51-5'
p1410
aS''
asS'5870'
p1411
(lp1412
S'53-16-7'
p1413
aS''
asS'5875'
p1414
(lp1415
S'53-33-8'
p1416
aS''
asS'5878'
p1417
(lp1418
S'53-39-4'
p1419
aS''
asS'11291'
p1420
(lp1421
S'82-88-2'
p1422
aS''
asS'3759'
p1423
(lp1424
S'59-63-2'
p1425
aS''
asS'10949'
p1426
(lp1427
S'542-02-9'
p1428
aS''
asS'6935'
p1429
(lp1430
S'88-51-7'
p1431
aS''
asS'7057'
p1432
(lp1433
S'91-59-8'
p1434
aS'91-59-8'
p1435
aS''
asS'4633'
p1436
(lp1437
S'99-43-4'
p1438
aS''
asS'4632'
p1439
(lp1440
S'131-57-7'
p1441
aS'131-57-7'
p1442
aS''
asS'4631'
p1443
(lp1444
S'6452-71-7'
p1445
aS''
asS'4636'
p1446
(lp1447
S'1491-59-4'
p1448
aS''
asS'4634'
p1449
(lp1450
S'5633-20-5'
p1451
aS''
asS'252'
p1452
(lp1453
S'6779-87-9'
p1454
aS''
asS'251'
p1455
(lp1456
S'114-25-0'
p1457
aS''
asS'7902'
p1458
(lp1459
S'108-01-0'
p1460
aS''
asS'254'
p1461
(lp1462
S'1133-63-7'
p1463
aS''
asS'11741'
p1464
(lp1465
S'599-61-1'
p1466
aS''
asS'11742'
p1467
(lp1468
S'599-64-4'
p1469
aS''
asS'7904'
p1470
(lp1471
S'108-05-4'
p1472
aS'108-05-4'
p1473
aS'108-05-4'
p1474
aS''
asS'6688'
p1475
(lp1476
S'81-64-1'
p1477
aS''
asS'11583'
p1478
(lp1479
S'591-78-6'
p1480
aS'591-78-6'
p1481
aS''
asS'6680'
p1482
(lp1483
S'81-48-1'
p1484
aS''
asS'7849'
p1485
(lp1486
S'107-04-0'
p1487
aS''
asS'7848'
p1488
(lp1489
S'107-03-9'
p1490
aS'107-03-9'
p1491
aS'107-03-9'
p1492
aS''
asS'7845'
p1493
(lp1494
S'106-99-0'
p1495
aS'106-99-0'
p1496
aS'106-99-0'
p1497
aS''
asS'7844'
p1498
(lp1499
S'106-98-9'
p1500
aS'25167-67-3'
p1501
aS''
asS'7847'
p1502
(lp1503
S'107-02-8'
p1504
aS'107-02-8'
p1505
aS'107-02-8'
p1506
aS''
asS'7846'
p1507
(lp1508
S'107-00-6'
p1509
aS''
asS'7840'
p1510
(lp1511
S'106-94-5'
p1512
aS''
asS'7843'
p1513
(lp1514
S'106-97-8'
p1515
aS'68476-42-6'
p1516
aS'68514-31-8'
p1517
aS'106-97-8'
p1518
aS'106-97-8'
p1519
aS''
asS'6356'
p1520
(lp1521
S'7637-07-2'
p1522
aS'7637-07-2'
p1523
aS'7637-07-2'
p1524
aS''
asS'3689'
p1525
(lp1526
S'23210-56-2'
p1527
aS''
asS'6355'
p1528
(lp1529
S'75-23-0'
p1530
aS''
asS'2342'
p1531
(lp1532
S'63-12-7'
p1533
aS''
asS'4528'
p1534
(lp1535
S'24526-64-5'
p1536
aS''
asS'3687'
p1537
(lp1538
S'54-42-2'
p1539
aS''
asS'4837'
p1540
(lp1541
S'110-85-0'
p1542
aS'110-85-0'
p1543
aS''
asS'6194'
p1544
(lp1545
S'66-75-1'
p1546
aS''
asS'7992'
p1547
(lp1548
S'109-53-5'
p1549
aS''
asS'6196'
p1550
(lp1551
S'66-79-5'
p1552
aS''
asS'7997'
p1553
(lp1554
S'109-60-4'
p1555
aS'109-60-4'
p1556
aS'109-60-4'
p1557
aS'109-60-4'
p1558
aS''
asS'2519'
p1559
(lp1560
S'58-08-2'
p1561
aS'58-08-2'
p1562
aS''
asS'7994'
p1563
(lp1564
S'109-56-8'
p1565
aS''
asS'4765'
p1566
(lp1567
S'98-67-9'
p1568
aS''
asS'9434'
p1569
(lp1570
S'317-52-2'
p1571
aS''
asS'9433'
p1572
(lp1573
S'317-34-0'
p1574
aS''
asS'2730'
p1575
(lp1576
S'2921-88-2'
p1577
aS'2921-88-2'
p1578
aS''
asS'2732'
p1579
(lp1580
S'77-36-1'
p1581
aS''
asS'2733'
p1582
(lp1583
S'95-25-0'
p1584
aS''
asS'3532'
p1585
(lp1586
S'498-96-4'
p1587
aS''
asS'5054'
p1588
(lp1589
S'108-46-3'
p1590
aS'108-46-3'
p1591
aS'108-46-3'
p1592
aS''
asS'9410'
p1593
(lp1594
S'41372-20-7'
p1595
aS''
asS'3950'
p1596
(lp1597
S'13010-47-4'
p1598
aS''
asS'9411'
p1599
(lp1600
S'314-40-9'
p1601
aS'314-40-9'
p1602
aS''
asS'6623'
p1603
(lp1604
S'80-05-7'
p1605
aS''
asS'10761'
p1606
(lp1607
S'532-40-1'
p1608
aS''
asS'6221'
p1609
(lp1610
S'67-97-0'
p1611
aS''
asS'6227'
p1612
(lp1613
S'79-08-3'
p1614
aS''
asS'6224'
p1615
(lp1616
S'68-04-2'
p1617
aS''
asS'6228'
p1618
(lp1619
S'68-12-2'
p1620
aS'68-12-2'
p1621
aS'68-12-2'
p1622
aS'68-12-2'
p1623
aS''
asS'8143'
p1624
(lp1625
S'111-86-4'
p1626
aS''
asS'8142'
p1627
(lp1628
S'111-85-3'
p1629
aS''
asS'6371'
p1630
(lp1631
S'75-44-5'
p1632
aS'75-44-5'
p1633
aS'75-44-5'
p1634
aS''
asS'7337'
p1635
(lp1636
S'97-52-9'
p1637
aS''
asS'7333'
p1638
(lp1639
S'97-39-2'
p1640
aS''
asS'9294'
p1641
(lp1642
S'299-42-3'
p1643
aS''
asS'1978'
p1644
(lp1645
S'37517-30-9'
p1646
aS''
asS'1601'
p1647
(lp1648
S'73-04-1'
p1649
aS''
asS'3224'
p1650
(lp1651
S'115-29-7'
p1652
aS'115-29-7'
p1653
aS''
asS'9298'
p1654
(lp1655
S'299-84-3'
p1656
aS'299-84-3'
p1657
aS''
asS'3226'
p1658
(lp1659
S'13838-16-9'
p1660
aS'13838-16-9'
p1661
aS'13838-16-9'
p1662
aS''
asS'7339'
p1663
(lp1664
S'13270-65-0'
p1665
aS''
asS'3222'
p1666
(lp1667
S'75847-73-3'
p1668
aS''
asS'11966'
p1669
(lp1670
S'614-45-9'
p1671
aS''
asS'8858'
p1672
(lp1673
S'141-79-7'
p1674
aS'141-79-7'
p1675
aS'141-79-7'
p1676
aS''
asS'8853'
p1677
(lp1678
S'141-63-9'
p1679
aS''
asS'8852'
p1680
(lp1681
S'141-62-8'
p1682
aS''
asS'8850'
p1683
(lp1684
S'141-57-1'
p1685
aS''
asS'807'
p1686
(lp1687
S'7553-56-2'
p1688
aS'7553-56-2'
p1689
aS'7553-56-2'
p1690
aS''
asS'805'
p1691
(lp1692
S'47055-78-7'
p1693
aS''
asS'10140'
p1694
(lp1695
S'475-31-0'
p1696
aS''
asS'7896'
p1697
(lp1698
S'107-88-0'
p1699
aS'107-88-0'
p1700
aS''
asS'3324'
p1701
(lp1702
S'104227-87-4'
p1703
aS''
asS'10213'
p1704
(lp1705
S'13291-61-7'
p1706
aS''
asS'3327'
p1707
(lp1708
S'4602-84-0'
p1709
aS''
asS'10413'
p1710
(lp1711
S'591-81-1'
p1712
aS''
asS'5333'
p1713
(lp1714
S'63-74-1'
p1715
aS''
asS'4168'
p1716
(lp1717
S'364-62-5'
p1718
aS''
asS'5478'
p1719
(lp1720
S'26839-75-8'
p1721
aS''
asS'5479'
p1722
(lp1723
S'19387-91-8'
p1724
aS''
asS'1775'
p1725
(lp1726
S'57-41-0'
p1727
aS''
asS'5277'
p1728
(lp1729
S'10418-03-8'
p1730
aS''
asS'10180'
p1731
(lp1732
S'479-50-5'
p1733
aS''
asS'7050'
p1734
(lp1735
S'91-44-1'
p1736
aS''
asS'5279'
p1737
(lp1738
S'62996-74-1'
p1739
aS''
asS'7054'
p1740
(lp1741
S'91-56-5'
p1742
aS''
asS'7055'
p1743
(lp1744
S'91-57-6'
p1745
aS''
asS'326'
p1746
(lp1747
S'122-03-2'
p1748
aS''
asS'9026'
p1749
(lp1750
S'151-13-3'
p1751
aS''
asS'8148'
p1752
(lp1753
S'111-92-2'
p1754
aS''
asS'6998'
p1755
(lp1756
S'90-02-8'
p1757
aS''
asS'8141'
p1758
(lp1759
S'111-84-2'
p1760
aS'111-84-2'
p1761
aS''
asS'6996'
p1762
(lp1763
S'89-98-5'
p1764
aS''
asS'6997'
p1765
(lp1766
S'90-00-6'
p1767
aS''
asS'8144'
p1768
(lp1769
S'111-88-6'
p1770
aS'111-88-6'
p1771
aS'111-88-6'
p1772
aS''
asS'1152'
p1773
(lp1774
S'7783-03-1'
p1775
aS''
asS'5510'
p1776
(lp1777
S'2398-96-1'
p1778
aS''
asS'5512'
p1779
(lp1780
S'124937-51-5'
p1781
aS''
asS'5801'
p1782
(lp1783
S'95-55-6'
p1784
aS''
asS'3039'
p1785
(lp1786
S'62-73-7'
p1787
aS'62-73-7'
p1788
aS''
asS'10387'
p1789
(lp1790
S'501-53-1'
p1791
aS''
asS'3038'
p1792
(lp1793
S'120-97-8'
p1794
aS''
asS'58'
p1795
(lp1796
S'600-18-0'
p1797
aS''
asS'3036'
p1798
(lp1799
S'50-29-3'
p1800
aS'50-29-3'
p1801
aS''
asS'3030'
p1802
(lp1803
S'1918-00-9'
p1804
aS''
asS'2995'
p1805
(lp1806
S'50-47-5'
p1807
aS''
asS'3033'
p1808
(lp1809
S'15307-86-5'
p1810
aS''
asS'535'
p1811
(lp1812
S'22059-21-8'
p1813
aS''
asS'9635'
p1814
(lp1815
S'354-58-5'
p1816
aS''
asS'8704'
p1817
(lp1818
S'136-84-5'
p1819
aS''
asS'3298'
p1820
(lp1821
S'86227-47-6'
p1822
aS''
asS'8709'
p1823
(lp1824
S'136-99-2'
p1825
aS''
asS'8034'
p1826
(lp1827
S'110-12-3'
p1828
aS'110-12-3'
p1829
aS'110-12-3'
p1830
aS''
asS'8037'
p1831
(lp1832
S'110-18-9'
p1833
aS''
asS'8031'
p1834
(lp1835
S'110-03-2'
p1836
aS''
asS'5139'
p1837
(lp1838
S'1071-37-0'
p1839
aS'2986-20-1'
p1840
aS''
asS'8033'
p1841
(lp1842
S'110-05-4'
p1843
aS''
asS'11009'
p1844
(lp1845
S'544-92-3'
p1846
aS''
asS'8038'
p1847
(lp1848
S'110-19-0'
p1849
aS'110-19-0'
p1850
aS'110-19-0'
p1851
aS''
asS'9999'
p1852
(lp1853
S'460-19-5'
p1854
aS'460-19-5'
p1855
aS''
asS'5601'
p1856
(lp1857
S'326-91-0'
p1858
aS''
asS'9993'
p1859
(lp1860
S'460-00-4'
p1861
aS''
asS'9632'
p1862
(lp1863
S'354-25-6'
p1864
aS''
asS'6518'
p1865
(lp1866
S'78-11-5'
p1867
aS''
asS'9633'
p1868
(lp1869
S'354-33-6'
p1870
aS''
asS'6510'
p1871
(lp1872
S'77-99-6'
p1873
aS''
asS'6511'
p1874
(lp1875
S'78-00-2'
p1876
aS'78-00-2'
p1877
aS'78-00-2'
p1878
aS''
asS'6514'
p1879
(lp1880
S'107-96-0'
p1881
aS''
asS'6516'
p1882
(lp1883
S'78-08-0'
p1884
aS''
asS'6517'
p1885
(lp1886
S'78-10-4'
p1887
aS'78-10-4'
p1888
aS'78-10-4'
p1889
aS''
asS'9636'
p1890
(lp1891
S'354-64-3'
p1892
aS''
asS'421'
p1893
(lp1894
S'462-20-4'
p1895
aS''
asS'1390'
p1896
(lp1897
S'616-47-7'
p1898
aS'616-47-7'
p1899
aS''
asS'3813'
p1900
(lp1901
S'97161-97-2'
p1902
aS''
asS'3817'
p1903
(lp1904
S'192725-17-0'
p1905
aS''
asS'8512'
p1906
(lp1907
S'129-43-1'
p1908
aS''
asS'6128'
p1909
(lp1910
S'63-05-8'
p1911
aS''
asS'8456'
p1912
(lp1913
S'25013-16-5'
p1914
aS''
asS'8455'
p1915
(lp1916
S'120-95-6'
p1917
aS''
asS'8453'
p1918
(lp1919
S'120-93-4'
p1920
aS''
asS'8452'
p1921
(lp1922
S'120-92-3'
p1923
aS''
asS'2583'
p1924
(lp1925
S'51781-06-7'
p1926
aS''
asS'8458'
p1927
(lp1928
S'121-03-9'
p1929
aS''
asS'6426'
p1930
(lp1931
S'76-11-9'
p1932
aS'76-11-9'
p1933
aS''
asS'6427'
p1934
(lp1935
S'76-12-0'
p1936
aS'76-12-0'
p1937
aS''
asS'6421'
p1938
(lp1939
S'76-03-9'
p1940
aS'76-03-9'
p1941
aS''
asS'6422'
p1942
(lp1943
S'76-05-1'
p1944
aS''
asS'6423'
p1945
(lp1946
S'76-06-2'
p1947
aS'76-06-2'
p1948
aS''
asS'6428'
p1949
(lp1950
S'76-13-1'
p1951
aS'76-13-1'
p1952
aS'76-13-1'
p1953
aS''
asS'6429'
p1954
(lp1955
S'76-14-2'
p1956
aS'76-14-2'
p1957
aS'76-14-2'
p1958
aS''
asS'356'
p1959
(lp1960
S'111-65-9'
p1961
aS'111-65-9'
p1962
aS'111-65-9'
p1963
aS'111-65-9'
p1964
aS''
asS'7540'
p1965
(lp1966
S'101-02-0'
p1967
aS''
asS'7543'
p1968
(lp1969
S'101-14-4'
p1970
aS'101-14-4'
p1971
aS'101-14-4'
p1972
aS''
asS'1989'
p1973
(lp1974
S'968-81-0'
p1975
aS''
asS'7261'
p1976
(lp1977
S'95-80-7'
p1978
aS'25376-45-8<br/>95-80-7(2,4-TDA)'
p1979
asS'6406'
p1980
(lp1981
S'75-86-5'
p1982
aS'75-86-5'
p1983
aS'75-86-5'
p1984
aS'75-86-5'
p1985
aS''
asS'6954'
p1986
(lp1987
S'88-89-1'
p1988
aS'88-89-1'
p1989
aS''
asS'6163'
p1990
(lp1991
S'64-67-5'
p1992
aS''
asS'6167'
p1993
(lp1994
S'64-86-8'
p1995
aS''
asS'4748'
p1996
(lp1997
S'58-39-9'
p1998
aS''
asS'6766'
p1999
(lp2000
S'84-15-1'
p2001
aS''
asS'4740'
p2002
(lp2003
S'6493-05-6'
p2004
aS''
asS'4747'
p2005
(lp2006
S'2622-26-6'
p2007
aS''
asS'4746'
p2008
(lp2009
S'6621-47-2'
p2010
aS''
asS'4745'
p2011
(lp2012
S'66104-22-1'
p2013
aS''
asS'5865'
p2014
(lp2015
S'53-03-2'
p2016
aS''
asS'5862'
p2017
(lp2018
S'52-90-4'
p2019
aS'921-01-7'
p2020
aS'52-90-4'
p2021
aS''
asS'6950'
p2022
(lp2023
S'88-85-7'
p2024
aS''
asS'8346'
p2025
(lp2026
S'117-84-0'
p2027
aS''
asS'2332'
p2028
(lp2029
S'618-39-3'
p2030
aS''
asS'227'
p2031
(lp2032
S'118-92-3'
p2033
aS''
asS'2334'
p2034
(lp2035
S'517-60-2'
p2036
aS''
asS'225'
p2037
(lp2038
S'53-42-9'
p2039
aS''
asS'4605'
p2040
(lp2041
S'630-60-4'
p2042
aS''
asS'222'
p2043
(lp2044
S'7664-41-7'
p2045
aS'7664-41-7'
p2046
aS'7664-41-7'
p2047
aS''
asS'11450'
p2048
(lp2049
S'585-34-2'
p2050
aS''
asS'4601'
p2051
(lp2052
S'83-98-7'
p2053
aS''
asS'5833'
p2054
(lp2055
S'52-01-7'
p2056
aS''
asS'2336'
p2057
(lp2058
S'50-32-8'
p2059
aS'50-32-8'
p2060
aS''
asS'5604'
p2061
(lp2062
S'69-33-0'
p2063
aS''
asS'2337'
p2064
(lp2065
S'94-09-7'
p2066
aS'94-09-7'
p2067
aS''
asS'3609'
p2068
(lp2069
S'3215-70-1'
p2070
aS''
asS'7099'
p2071
(lp2072
S'92-62-6'
p2073
aS''
asS'6209'
p2074
(lp2075
S'67-48-1'
p2076
aS''
asS'6133'
p2077
(lp2078
S'63-39-8'
p2079
aS''
asS'6693'
p2080
(lp2081
S'81-84-5'
p2082
aS''
asS'10313'
p2083
(lp2084
S'495-18-1'
p2085
aS''
asS'6690'
p2086
(lp2087
S'81-77-6'
p2088
aS''
asS'6694'
p2089
(lp2090
S'81-88-9'
p2091
aS''
asS'6901'
p2092
(lp2093
S'87-68-3'
p2094
aS'87-68-3'
p2095
aS''
asS'159'
p2096
(lp2097
S'35121-78-9'
p2098
aS''
asS'2431'
p2099
(lp2100
S'59-41-6'
p2101
aS''
asS'6456'
p2102
(lp2103
S'76-83-5'
p2104
aS''
asS'2435'
p2105
(lp2106
S'59803-98-4'
p2107
aS''
asS'5979'
p2108
(lp2109
S'57-24-9'
p2110
aS'57-24-9'
p2111
aS''
asS'7838'
p2112
(lp2113
S'106-92-3'
p2114
aS'106-92-3'
p2115
aS'106-92-3'
p2116
aS''
asS'7839'
p2117
(lp2118
S'106-93-4'
p2119
aS'106-93-4'
p2120
aS'106-93-4'
p2121
aS''
asS'8135'
p2122
(lp2123
S'111-78-4'
p2124
aS''
asS'7832'
p2125
(lp2126
S'106-86-5'
p2127
aS''
asS'7833'
p2128
(lp2129
S'106-87-6'
p2130
aS'106-87-6'
p2131
aS''
asS'7834'
p2132
(lp2133
S'106-88-7'
p2134
aS''
asS'7835'
p2135
(lp2136
S'106-89-8'
p2137
aS'106-89-8'
p2138
aS'106-89-8'
p2139
aS''
asS'7837'
p2140
(lp2141
S'106-91-2'
p2142
aS''
asS'6341'
p2143
(lp2144
S'75-04-7'
p2145
aS'75-04-7'
p2146
aS'75-04-7'
p2147
aS''
asS'6340'
p2148
(lp2149
S'75-03-6'
p2150
aS''
asS'6343'
p2151
(lp2152
S'75-08-1'
p2153
aS'75-08-1'
p2154
aS'75-08-1'
p2155
aS''
asS'6342'
p2156
(lp2157
S'75-05-8'
p2158
aS'75-05-8'
p2159
aS'75-05-8'
p2160
aS''
asS'6345'
p2161
(lp2162
S'75-10-5'
p2163
aS''
asS'6344'
p2164
(lp2165
S'75-09-2'
p2166
aS'75-09-2'
p2167
aS'75-09-2'
p2168
aS''
asS'5936'
p2169
(lp2170
S'55-91-4'
p2171
aS''
asS'6348'
p2172
(lp2173
S'75-15-0'
p2174
aS'75-15-0'
p2175
aS'75-15-0'
p2176
aS''
asS'4510'
p2177
(lp2178
S'55-63-0'
p2179
aS'55-63-0'
p2180
aS'55-63-0'
p2181
aS'55-63-0'
p2182
aS''
asS'9429'
p2183
(lp2184
S'316-81-4'
p2185
aS''
asS'6184'
p2186
(lp2187
S'66-25-1'
p2188
aS''
asS'3762'
p2189
(lp2190
S'530-08-5'
p2191
aS''
asS'8132'
p2192
(lp2193
S'111-75-1'
p2194
aS''
asS'9427'
p2195
(lp2196
S'316-46-1'
p2197
aS''
asS'2727'
p2198
(lp2199
S'94-20-2'
p2200
aS''
asS'2726'
p2201
(lp2202
S'50-53-3'
p2203
aS''
asS'2725'
p2204
(lp2205
S'132-22-9'
p2206
aS''
asS'2722'
p2207
(lp2208
S'773-76-2'
p2209
aS''
asS'2720'
p2210
(lp2211
S'58-94-6'
p2212
aS''
asS'5281'
p2213
(lp2214
S'57-11-4'
p2215
aS'57-11-4'
p2216
aS''
asS'2729'
p2217
(lp2218
S'113-59-7'
p2219
aS''
asS'7237'
p2220
(lp2221
S'95-47-6'
p2222
aS'95-47-6'
p2223
aS'95-47-6'
p2224
aS''
asS'7946'
p2225
(lp2226
S'108-65-6'
p2227
aS''
asS'7947'
p2228
(lp2229
S'108-67-8'
p2230
aS'108-67-8'
p2231
aS''
asS'7940'
p2232
(lp2233
S'108-55-4'
p2234
aS''
asS'7233'
p2235
(lp2236
S'21652-27-7'
p2237
aS'95-38-5'
p2238
aS''
asS'7230'
p2239
(lp2240
S'95-31-8'
p2241
aS''
asS'7943'
p2242
(lp2243
S'108-59-8'
p2244
aS''
asS'7948'
p2245
(lp2246
S'108-68-9'
p2247
aS''
asS'7238'
p2248
(lp2249
S'95-49-8'
p2250
aS'95-49-8'
p2251
aS'95-49-8'
p2252
aS''
asS'7239'
p2253
(lp2254
S'95-50-1'
p2255
aS'95-50-1'
p2256
aS'95-50-1'
p2257
aS''
asS'3783'
p2258
(lp2259
S'395-28-8'
p2260
aS''
asS'1805'
p2261
(lp2262
S'320-67-2'
p2263
aS''
asS'3781'
p2264
(lp2265
S'482-15-5'
p2266
aS''
asS'3784'
p2267
(lp2268
S'75695-93-1'
p2269
aS''
asS'1808'
p2270
(lp2271
S'28733-43-9'
p2272
aS''
asS'4992'
p2273
(lp2274
S'91-84-9'
p2275
aS''
asS'4993'
p2276
(lp2277
S'58-14-0'
p2278
aS''
asS'4991'
p2279
(lp2280
S'155-97-5'
p2281
aS''
asS'6234'
p2282
(lp2283
S'68-41-7'
p2284
aS''
asS'6230'
p2285
(lp2286
S'68-22-4'
p2287
aS''
asS'4999'
p2288
(lp2289
S'36735-22-5'
p2290
aS''
asS'2581'
p2291
(lp2292
S'53716-49-7'
p2293
aS''
asS'11820'
p2294
(lp2295
S'606-43-9'
p2296
aS''
asS'10518'
p2297
(lp2298
S'509-86-4'
p2299
aS''
asS'9024'
p2300
(lp2301
S'151-05-3'
p2302
aS''
asS'9775'
p2303
(lp2304
S'374-07-2'
p2305
aS''
asS'7302'
p2306
(lp2307
S'187997-16-6'
p2308
aS'96-48-0'
p2309
aS''
asS'7303'
p2310
(lp2311
S'96-49-1'
p2312
aS''
asS'1949'
p2313
(lp2314
S'161582-11-2'
p2315
aS''
asS'3251'
p2316
(lp2317
S'113-15-5'
p2318
aS''
asS'7308'
p2319
(lp2320
S'96-69-5'
p2321
aS'96-69-5'
p2322
aS'96-69-5'
p2323
aS''
asS'7309'
p2324
(lp2325
S'96-70-8'
p2326
aS''
asS'8868'
p2327
(lp2328
S'141-97-9'
p2329
aS''
asS'11915'
p2330
(lp2331
S'611-73-4'
p2332
aS''
asS'811'
p2333
(lp2334
S'97-65-4'
p2335
aS''
asS'7935'
p2336
(lp2337
S'108-45-2'
p2338
aS'108-45-2'
p2339
aS''
asS'10918'
p2340
(lp2341
S'461-06-3'
p2342
aS''
asS'1990'
p2343
(lp2344
S'546-88-3'
p2345
aS''
asS'3767'
p2346
(lp2347
S'54-85-3'
p2348
aS''
asS'1993'
p2349
(lp2350
S'55-92-5'
p2351
aS''
asS'3718'
p2352
(lp2353
S'31842-01-0'
p2354
aS''
asS'3333'
p2355
(lp2356
S'72509-76-3'
p2357
aS''
asS'1491'
p2358
(lp2359
S'89-86-1'
p2360
aS'89-86-1'
p2361
aS''
asS'3331'
p2362
(lp2363
S'25451-15-4'
p2364
aS''
asS'1493'
p2365
(lp2366
S'51-28-5'
p2367
aS''
asS'3337'
p2368
(lp2369
S'458-24-2'
p2370
aS'3239-44-9'
p2371
aS''
asS'3336'
p2372
(lp2373
S'13042-18-7'
p2374
aS''
asS'7043'
p2375
(lp2376
S'91-16-7'
p2377
aS''
asS'5468'
p2378
(lp2379
S'33005-95-7'
p2380
aS''
asS'3339'
p2381
(lp2382
S'49562-28-9'
p2383
aS''
asS'1626'
p2384
(lp2385
S'102-83-0'
p2386
aS''
asS'992'
p2387
(lp2388
S'87-86-5'
p2389
aS'87-86-5'
p2390
aS'87-86-5'
p2391
aS''
asS'8360'
p2392
(lp2393
S'118-52-5'
p2394
aS'118-52-5'
p2395
aS''
asS'1129'
p2396
(lp2397
S'135-16-0'
p2398
aS'135-16-0'
p2399
aS''
asS'3168'
p2400
(lp2401
S'548-73-2'
p2402
aS''
asS'6989'
p2403
(lp2404
S'89-83-8'
p2405
aS'89-83-8'
p2406
aS''
asS'6986'
p2407
(lp2408
S'10458-14-7'
p2409
aS''
asS'1123'
p2410
(lp2411
S'107-35-7'
p2412
aS''
asS'8606'
p2413
(lp2414
S'133-06-2'
p2415
aS'133-06-2'
p2416
aS''
asS'1125'
p2417
(lp2418
S'17528-72-2'
p2419
aS''
asS'1127'
p2420
(lp2421
S'110-01-0'
p2422
aS''
asS'11138'
p2423
(lp2424
S'554-95-0'
p2425
aS''
asS'8413'
p2426
(lp2427
S'119-93-7'
p2428
aS'119-93-7'
p2429
aS'119-93-7'
p2430
aS''
asS'974'
p2431
(lp2432
S'471-47-6'
p2433
aS''
asS'3026'
p2434
(lp2435
S'84-74-2'
p2436
aS'84-74-2'
p2437
aS'84-74-2'
p2438
aS''
asS'3025'
p2439
(lp2440
S'85-79-0'
p2441
aS''
asS'3024'
p2442
(lp2443
S'74-95-3'
p2444
aS''
asS'9084'
p2445
(lp2446
S'141-82-2'
p2447
aS''
asS'4474'
p2448
(lp2449
S'55985-32-5'
p2450
aS''
asS'525'
p2451
(lp2452
S'6915-15-7'
p2453
aS''
asS'527'
p2454
(lp2455
S'123-38-6'
p2456
aS''
asS'8738'
p2457
(lp2458
S'138-22-7'
p2459
aS'138-22-7'
p2460
aS'138-22-7'
p2461
aS''
asS'1014'
p2462
(lp2463
S'107-73-3'
p2464
aS''
asS'1015'
p2465
(lp2466
S'1071-23-4'
p2467
aS''
asS'1017'
p2468
(lp2469
S'88-99-3'
p2470
aS''
asS'529'
p2471
(lp2472
S'13147-57-4'
p2473
aS''
asS'8730'
p2474
(lp2475
S'51-49-0'
p2476
aS''
asS'8041'
p2477
(lp2478
S'110-26-9'
p2479
aS''
asS'8042'
p2480
(lp2481
S'110-27-0'
p2482
aS''
asS'8043'
p2483
(lp2484
S'110-29-2'
p2485
aS''
asS'8044'
p2486
(lp2487
S'110-30-5'
p2488
aS''
asS'4199'
p2489
(lp2490
S'25905-77-5'
p2491
aS''
asS'4197'
p2492
(lp2493
S'78415-72-2'
p2494
aS''
asS'4195'
p2495
(lp2496
S'133163-28-7'
p2497
aS''
asS'4192'
p2498
(lp2499
S'59467-70-8'
p2500
aS''
asS'3956'
p2501
(lp2502
S'76470-66-1'
p2503
aS''
asS'5672'
p2504
(lp2505
S'71486-22-1'
p2506
aS''
asS'8285'
p2507
(lp2508
S'115-77-5'
p2509
aS'115-77-5'
p2510
aS'115-77-5'
p2511
aS''
asS'5674'
p2512
(lp2513
S'21411-53-0'
p2514
aS''
asS'8280'
p2515
(lp2516
S'115-67-3'
p2517
aS''
asS'8289'
p2518
(lp2519
S'115-86-6'
p2520
aS'115-86-6'
p2521
aS'115-86-6'
p2522
aS''
asS'11000'
p2523
(lp2524
S'544-25-2'
p2525
aS''
asS'6000'
p2526
(lp2527
S'6989-98-6'
p2528
aS''
asS'11005'
p2529
(lp2530
S'544-63-8'
p2531
aS''
asS'6503'
p2532
(lp2533
S'77-86-1'
p2534
aS''
asS'6502'
p2535
(lp2536
S'77-85-0'
p2537
aS''
asS'6501'
p2538
(lp2539
S'77-83-8'
p2540
aS''
asS'6507'
p2541
(lp2542
S'77-94-1'
p2543
aS''
asS'6506'
p2544
(lp2545
S'77-93-0'
p2546
aS''
asS'6505'
p2547
(lp2548
S'77-90-7'
p2549
aS''
asS'6504'
p2550
(lp2551
S'77-89-4'
p2552
aS''
asS'2329'
p2553
(lp2554
S'37106-97-1'
p2555
aS''
asS'4115'
p2556
(lp2557
S'72-43-5'
p2558
aS'72-43-5'
p2559
aS''
asS'4674'
p2560
(lp2561
S'40391-99-9'
p2562
aS''
asS'11430'
p2563
(lp2564
S'584-08-7'
p2565
aS''
asS'11345'
p2566
(lp2567
S'25321-09-9'
p2568
aS''
asS'8461'
p2569
(lp2570
S'121-14-2'
p2571
aS'121-14-2'
p2572
aS''
asS'8467'
p2573
(lp2574
S'121-32-4'
p2575
aS''
asS'8468'
p2576
(lp2577
S'121-34-6'
p2578
aS''
asS'2481'
p2579
(lp2580
S'77-26-9'
p2581
aS''
asS'8192'
p2582
(lp2583
S'112-52-7'
p2584
aS''
asS'8193'
p2585
(lp2586
S'112-53-8'
p2587
aS''
asS'8190'
p2588
(lp2589
S'112-50-5'
p2590
aS''
asS'5709'
p2591
(lp2592
S'526-36-3'
p2593
aS''
asS'6431'
p2594
(lp2595
S'76-16-4'
p2596
aS''
asS'6430'
p2597
(lp2598
S'76-15-3'
p2599
aS'76-15-3'
p2600
aS''
asS'8199'
p2601
(lp2602
S'112-59-4'
p2603
aS''
asS'7558'
p2604
(lp2605
S'3595-11-7'
p2606
aS''
asS'3372'
p2607
(lp2608
S'69-23-8'
p2609
aS''
asS'7557'
p2610
(lp2611
S'101-39-3'
p2612
aS''
asS'7555'
p2613
(lp2614
S'101-37-1'
p2615
aS''
asS'49'
p2616
(lp2617
S'759-05-7'
p2618
aS''
asS'285'
p2619
(lp2620
S'2921-14-4'
p2621
aS''
asS'3314'
p2622
(lp2623
S'97-53-0'
p2624
aS''
asS'5719'
p2625
(lp2626
S'151319-34-5'
p2627
aS''
asS'8007'
p2628
(lp2629
S'109-73-9'
p2630
aS'109-73-9'
p2631
aS'109-73-9'
p2632
aS'109-73-9'
p2633
aS''
asS'4771'
p2634
(lp2635
S'122-09-8'
p2636
aS''
asS'4174'
p2637
(lp2638
S'54-36-4'
p2639
aS''
asS'7175'
p2640
(lp2641
S'94-13-3'
p2642
aS''
asS'6758'
p2643
(lp2644
S'83-79-4'
p2645
aS'83-79-4'
p2646
aS''
asS'6759'
p2647
(lp2648
S'83-88-5'
p2649
aS''
asS'4170'
p2650
(lp2651
S'17560-51-9'
p2652
aS''
asS'4171'
p2653
(lp2654
S'37350-58-6'
p2655
aS''
asS'4173'
p2656
(lp2657
S'443-48-1'
p2658
aS''
asS'4178'
p2659
(lp2660
S'31828-71-4'
p2661
aS''
asS'6577'
p2662
(lp2663
S'79-04-9'
p2664
aS'79-04-9'
p2665
aS'79-04-9'
p2666
aS''
asS'9868'
p2667
(lp2668
S'420-46-2'
p2669
aS''
asS'5819'
p2670
(lp2671
S'51-48-9'
p2672
aS''
asS'5810'
p2673
(lp2674
S'51-35-4'
p2675
aS''
asS'5816'
p2676
(lp2677
S'51-43-4'
p2678
aS''
asS'5064'
p2679
(lp2680
S'36791-04-5'
p2681
aS''
asS'11357'
p2682
(lp2683
S'578-54-1'
p2684
aS''
asS'7397'
p2685
(lp2686
S'98-59-9'
p2687
aS''
asS'7956'
p2688
(lp2689
S'108-80-5'
p2690
aS''
asS'4619'
p2691
(lp2692
S'468-61-1'
p2693
aS''
asS'996'
p2694
(lp2695
S'108-95-2'
p2696
aS'108-95-2'
p2697
aS'108-95-2'
p2698
aS'108-95-2'
p2699
aS''
asS'239'
p2700
(lp2701
S'107-95-9'
p2702
aS''
asS'234'
p2703
(lp2704
S'7778-39-4'
p2705
aS'7778-39-4'
p2706
aS''
asS'4610'
p2707
(lp2708
S'694-83-7'
p2709
aS''
asS'237'
p2710
(lp2711
S'83-89-6'
p2712
aS''
asS'231'
p2713
(lp2714
S'506-32-1'
p2715
aS''
asS'4616'
p2716
(lp2717
S'604-75-1'
p2718
aS''
asS'6054'
p2719
(lp2720
S'60-12-8'
p2721
aS'60-12-8'
p2722
aS''
asS'6925'
p2723
(lp2724
S'88-20-0'
p2725
aS''
asS'10836'
p2726
(lp2727
S'537-46-2'
p2728
aS''
asS'7423'
p2729
(lp2730
S'99-09-2'
p2731
aS''
asS'2477'
p2732
(lp2733
S'36505-84-7'
p2734
aS''
asS'2707'
p2735
(lp2736
S'302-17-0'
p2737
aS''
asS'146'
p2738
(lp2739
S'134-35-0'
p2740
aS''
asS'5357'
p2741
(lp2742
S'53583-79-2'
p2743
aS''
asS'4883'
p2744
(lp2745
S'6673-35-4'
p2746
aS''
asS'143'
p2747
(lp2748
S'58-05-9'
p2749
aS''
asS'2468'
p2750
(lp2751
S'692-13-7'
p2752
aS''
asS'10560'
p2753
(lp2754
S'513-53-1'
p2755
aS''
asS'6924'
p2756
(lp2757
S'1333-07-9'
p2758
aS''
asS'5143'
p2759
(lp2760
S'81-07-2'
p2761
aS''
asS'2352'
p2762
(lp2763
S'88430-50-6'
p2764
aS''
asS'4507'
p2765
(lp2766
S'39562-70-4'
p2767
aS''
asS'4506'
p2768
(lp2769
S'146-22-5'
p2770
aS''
asS'9554'
p2771
(lp2772
S'335-67-1'
p2773
aS''
asS'7822'
p2774
(lp2775
S'541-85-5'
p2776
aS''
asS'7820'
p2777
(lp2778
S'106-65-0'
p2779
aS''
asS'5215'
p2780
(lp2781
S'68-35-9'
p2782
aS''
asS'1055'
p2783
(lp2784
S'447-05-2'
p2785
aS''
asS'6490'
p2786
(lp2787
S'25265-77-4'
p2788
aS''
asS'8481'
p2789
(lp2790
S'121-60-8'
p2791
aS''
asS'2353'
p2792
(lp2793
S'2086-83-1'
p2794
aS''
asS'5328'
p2795
(lp2796
S'144-82-1'
p2797
aS''
asS'6942'
p2798
(lp2799
S'88-68-6'
p2800
aS''
asS'5073'
p2801
(lp2802
S'106266-06-2'
p2803
aS''
asS'5212'
p2804
(lp2805
S'139755-83-2'
p2806
aS''
asS'4734'
p2807
(lp2808
S'5534-95-2'
p2809
aS''
asS'2534'
p2810
(lp2811
S'101932-71-2'
p2812
aS''
asS'2712'
p2813
(lp2814
S'58-25-3'
p2815
aS''
asS'2710'
p2816
(lp2817
S'82-93-9'
p2818
aS''
asS'5453'
p2819
(lp2820
S'52-24-4'
p2821
aS''
asS'2717'
p2822
(lp2823
S'80-77-3'
p2824
aS''
asS'3346'
p2825
(lp2826
S'55-38-9'
p2827
aS'55-38-9'
p2828
aS''
asS'2719'
p2829
(lp2830
S'54-05-7'
p2831
aS''
asS'9363'
p2832
(lp2833
S'304-84-7'
p2834
aS''
asS'7071'
p2835
(lp2836
S'91-95-2'
p2837
aS''
asS'7957'
p2838
(lp2839
S'108-82-7'
p2840
aS''
asS'10698'
p2841
(lp2842
S'527-60-6'
p2843
aS''
asS'7223'
p2844
(lp2845
S'95-19-2'
p2846
aS''
asS'7954'
p2847
(lp2848
S'108-77-0'
p2849
aS''
asS'8981'
p2850
(lp2851
S'26780-96-1'
p2852
aS''
asS'7072'
p2853
(lp2854
S'91-97-4'
p2855
aS''
asS'8982'
p2856
(lp2857
S'147-52-4'
p2858
aS''
asS'5070'
p2859
(lp2860
S'1744-22-5'
p2861
aS''
asS'10695'
p2862
(lp2863
S'527-53-7'
p2864
aS''
asS'10565'
p2865
(lp2866
S'513-79-1'
p2867
aS''
asS'2351'
p2868
(lp2869
S'64706-54-3'
p2870
aS''
asS'3793'
p2871
(lp2872
S'84625-61-6'
p2873
aS''
asS'3792'
p2874
(lp2875
S'122898-67-3'
p2876
aS''
asS'6249'
p2877
(lp2878
S'69-53-4'
p2879
aS''
asS'2405'
p2880
(lp2881
S'66722-44-9'
p2882
aS''
asS'9565'
p2883
(lp2884
S'339-44-6'
p2885
aS''
asS'932'
p2886
(lp2887
S'480-41-1'
p2888
aS''
asS'931'
p2889
(lp2890
S'91-20-3'
p2891
aS'91-20-3'
p2892
aS'91-20-3'
p2893
aS''
asS'935'
p2894
(lp2895
S'7440-02-0'
p2896
aS'7440-02-0'
p2897
aS'7440-02-0'
p2898
aS'7440-02-0'
p2899
aS''
asS'5381'
p2900
(lp2901
S'118292-40-3'
p2902
aS''
asS'7927'
p2903
(lp2904
S'108-36-1'
p2905
aS''
asS'9700'
p2906
(lp2907
S'365-07-1'
p2908
aS''
asS'3249'
p2909
(lp2910
S'50-14-6'
p2911
aS''
asS'8877'
p2912
(lp2913
S'142-17-6'
p2914
aS''
asS'8876'
p2915
(lp2916
S'142-16-5'
p2917
aS''
asS'8879'
p2918
(lp2919
S'142-22-3'
p2920
aS''
asS'3242'
p2921
(lp2922
S'18694-40-1'
p2923
aS''
asS'3241'
p2924
(lp2925
S'80012-43-7'
p2926
aS''
asS'7311'
p2927
(lp2928
S'96-76-4'
p2929
aS''
asS'7313'
p2930
(lp2931
S'96-80-0'
p2932
aS''
asS'11903'
p2933
(lp2934
S'25550-14-5'
p2935
aS''
asS'11906'
p2936
(lp2937
S'611-19-8'
p2938
aS''
asS'8115'
p2939
(lp2940
S'111-44-4'
p2941
aS'111-44-4'
p2942
aS'111-44-4'
p2943
aS''
asS'1177'
p2944
(lp2945
S'58-96-8'
p2946
aS''
asS'618'
p2947
(lp2948
S'20479-58-7'
p2949
aS''
asS'9015'
p2950
(lp2951
S'150-76-5'
p2952
aS'150-76-5'
p2953
aS'150-76-5'
p2954
aS''
asS'1480'
p2955
(lp2956
S'93-76-5'
p2957
aS'93-76-5'
p2958
aS''
asS'1486'
p2959
(lp2960
S'94-75-7'
p2961
aS'94-75-7'
p2962
aS'94-75-7'
p2963
aS''
asS'10235'
p2964
(lp2965
S'485-35-8'
p2966
aS''
asS'3306'
p2967
(lp2968
S'709-55-7'
p2969
aS''
asS'3305'
p2970
(lp2971
S'7414-83-7'
p2972
aS'2809-21-4'
p2973
aS''
asS'3303'
p2974
(lp2975
S'76-58-4'
p2976
aS''
asS'3301'
p2977
(lp2978
S'107-15-3'
p2979
aS'107-15-3'
p2980
aS'107-15-3'
p2981
aS''
asS'797'
p2982
(lp2983
S'131-99-7'
p2984
aS''
asS'5253'
p2985
(lp2986
S'3930-20-9'
p2987
aS''
asS'795'
p2988
(lp2989
S'288-32-4'
p2990
aS''
asS'790'
p2991
(lp2992
S'68-94-0'
p2993
aS''
asS'7922'
p2994
(lp2995
S'108-30-5'
p2996
aS'68412-02-2'
p2997
aS'68784-12-3'
p2998
aS''
asS'798'
p2999
(lp3000
S'120-72-9'
p3001
aS''
asS'3157'
p3002
(lp3003
S'74191-85-8'
p3004
aS''
asS'2462'
p3005
(lp3006
S'51333-22-3'
p3007
aS''
asS'7710'
p3008
(lp3009
S'104-61-0'
p3010
aS''
asS'5946'
p3011
(lp3012
S'56-34-8'
p3013
aS''
asS'1133'
p3014
(lp3015
S'68-11-1'
p3016
aS'68-11-1'
p3017
aS'68-11-1'
p3018
aS''
asS'1132'
p3019
(lp3020
S'154-87-0'
p3021
aS''
asS'1131'
p3022
(lp3023
S'532-40-1'
p3024
aS''
asS'1130'
p3025
(lp3026
S'59-43-8'
p3027
aS''
asS'4060'
p3028
(lp3029
S'50-12-4'
p3030
aS''
asS'1135'
p3031
(lp3032
S'65-71-4'
p3033
aS''
asS'11120'
p3034
(lp3035
S'553-90-2'
p3036
aS''
asS'6253'
p3037
(lp3038
S'147-94-4'
p3039
aS''
asS'11123'
p3040
(lp3041
S'554-00-7'
p3042
aS''
asS'11125'
p3043
(lp3044
S'554-13-2'
p3045
aS''
asS'7788'
p3046
(lp3047
S'106-11-6'
p3048
aS''
asS'4066'
p3049
(lp3050
S'29216-28-2'
p3051
aS''
asS'7784'
p3052
(lp3053
S'105-99-7'
p3054
aS''
asS'6251'
p3055
(lp3056
S'69-65-8'
p3057
aS'69-65-8'
p3058
aS''
asS'7780'
p3059
(lp3060
S'105-87-3'
p3061
aS'141-12-8'
p3062
aS''
asS'5943'
p3063
(lp3064
S'56-23-5'
p3065
aS'56-23-5'
p3066
aS'56-23-5'
p3067
aS''
asS'3019'
p3068
(lp3069
S'364-98-7'
p3070
aS''
asS'3011'
p3071
(lp3072
S'1783-84-2'
p3073
aS''
asS'3016'
p3074
(lp3075
S'439-14-5'
p3076
aS''
asS'3017'
p3077
(lp3078
S'333-41-5'
p3079
aS'333-41-5'
p3080
aS''
asS'3308'
p3081
(lp3082
S'41340-25-4'
p3083
aS''
asS'6256'
p3084
(lp3085
S'70-00-8'
p3086
aS''
asS'8249'
p3087
(lp3088
S'114-86-3'
p3089
aS''
asS'6255'
p3090
(lp3091
S'69-79-4'
p3092
aS'69-79-4'
p3093
aS''
asS'10997'
p3094
(lp3095
S'544-17-2'
p3096
aS''
asS'1005'
p3097
(lp3098
S'138-08-9'
p3099
aS''
asS'1004'
p3100
(lp3101
S'7664-38-2'
p3102
aS'7664-38-2'
p3103
aS'7664-38-2'
p3104
aS''
asS'1003'
p3105
(lp3106
S'29505-79-1'
p3107
aS''
asS'1001'
p3108
(lp3109
S'64-04-0'
p3110
aS''
asS'4189'
p3111
(lp3112
S'22916-47-8'
p3113
aS''
asS'5393'
p3114
(lp3115
S'111902-57-9'
p3116
aS''
asS'8051'
p3117
(lp3118
S'110-43-0'
p3119
aS'110-43-0'
p3120
aS'110-43-0'
p3121
aS''
asS'8502'
p3122
(lp3123
S'122-04-3'
p3124
aS''
asS'8054'
p3125
(lp3126
S'110-49-6'
p3127
aS'110-49-6'
p3128
aS''
asS'8059'
p3129
(lp3130
S'110-56-5'
p3131
aS''
asS'8058'
p3132
(lp3133
S'110-54-3'
p3134
aS'110-54-3'
p3135
aS'110-54-3'
p3136
aS'110-54-3'
p3137
aS''
asS'6492'
p3138
(lp3139
S'77-73-6'
p3140
aS'77-73-6'
p3141
aS'77-73-6'
p3142
aS''
asS'4184'
p3143
(lp3144
S'24219-97-4'
p3145
aS''
asS'10993'
p3146
(lp3147
S'928-96-1'
p3148
aS''
asS'6537'
p3149
(lp3150
S'78-42-2'
p3151
aS''
asS'8292'
p3152
(lp3153
S'115-90-2'
p3154
aS'115-90-2'
p3155
aS''
asS'8295'
p3156
(lp3157
S'115-96-8'
p3158
aS''
asS'8294'
p3159
(lp3160
S'115-95-7'
p3161
aS''
asS'6530'
p3162
(lp3163
S'220352-35-2'
p3164
aS'78-33-1'
p3165
aS''
asS'6531'
p3166
(lp3167
S'78-34-2'
p3168
aS'78-34-2'
p3169
aS''
asS'8298'
p3170
(lp3171
S'116-02-9'
p3172
aS''
asS'5396'
p3173
(lp3174
S'29767-20-2'
p3175
aS''
asS'2882'
p3176
(lp3177
S'16110-51-3'
p3178
aS''
asS'2883'
p3179
(lp3180
S'483-63-6'
p3181
aS''
asS'7499'
p3182
(lp3183
S'100-40-3'
p3184
aS'100-40-3'
p3185
aS''
asS'2256'
p3186
(lp3187
S'1912-24-9'
p3188
aS'1912-24-9'
p3189
aS''
asS'8617'
p3190
(lp3191
S'133-32-4'
p3192
aS''
asS'4064'
p3193
(lp3194
S'57-53-4'
p3195
aS''
asS'8612'
p3196
(lp3197
S'133-16-4'
p3198
aS''
asS'3878'
p3199
(lp3200
S'84057-84-1'
p3201
aS''
asS'6547'
p3202
(lp3203
S'78-67-1'
p3204
aS''
asS'3872'
p3205
(lp3206
S'4618-18-2'
p3207
aS''
asS'5953'
p3208
(lp3209
S'56-54-2'
p3210
aS''
asS'11333'
p3211
(lp3212
S'4618-18-2'
p3213
aS''
asS'8479'
p3214
(lp3215
S'121-57-3'
p3216
aS''
asS'8471'
p3217
(lp3218
S'121-44-8'
p3219
aS'121-44-8'
p3220
aS'121-44-8'
p3221
aS''
asS'8470'
p3222
(lp3223
S'121-43-7'
p3224
aS''
asS'8473'
p3225
(lp3226
S'121-46-0'
p3227
aS''
asS'8472'
p3228
(lp3229
S'121-45-9'
p3230
aS'121-45-9'
p3231
aS'121-45-9'
p3232
aS''
asS'11'
p3233
(lp3234
S'107-06-2'
p3235
aS'107-06-2'
p3236
aS'107-06-2'
p3237
aS'107-06-2'
p3238
aS''
asS'6403'
p3239
(lp3240
S'75-83-2'
p3241
aS''
asS'7564'
p3242
(lp3243
S'101-54-2'
p3244
aS''
asS'15'
p3245
(lp3246
S'521-18-6'
p3247
aS''
asS'7560'
p3248
(lp3249
S'101-42-8'
p3250
aS''
asS'6405'
p3251
(lp3252
S'75-85-4'
p3253
aS''
asS'5717'
p3254
(lp3255
S'107753-78-6'
p3256
aS''
asS'8184'
p3257
(lp3258
S'112-42-5'
p3259
aS''
asS'8187'
p3260
(lp3261
S'112-45-8'
p3262
aS''
asS'6409'
p3263
(lp3264
S'75-89-8'
p3265
aS''
asS'8181'
p3266
(lp3267
S'112-39-0'
p3268
aS''
asS'8183'
p3269
(lp3270
S'112-41-4'
p3271
aS''
asS'8182'
p3272
(lp3273
S'112-40-3'
p3274
aS'112-40-3'
p3275
aS''
asS'7764'
p3276
(lp3277
S'105-56-6'
p3278
aS''
asS'7766'
p3279
(lp3280
S'105-58-8'
p3281
aS''
asS'7767'
p3282
(lp3283
S'105-59-9'
p3284
aS''
asS'7760'
p3285
(lp3286
S'105-52-2'
p3287
aS''
asS'7761'
p3288
(lp3289
S'105-53-3'
p3290
aS''
asS'7762'
p3291
(lp3292
S'105-54-4'
p3293
aS''
asS'7768'
p3294
(lp3295
S'105-60-2'
p3296
aS'105-60-2'
p3297
aS'105-60-2'
p3298
aS'105-60-2'
p3299
aS'105-60-2'
p3300
aS''
asS'7769'
p3301
(lp3302
S'105-64-6'
p3303
aS''
asS'3902'
p3304
(lp3305
S'112809-51-5'
p3306
aS''
asS'4761'
p3307
(lp3308
S'86-21-5'
p3309
aS''
asS'4760'
p3310
(lp3311
S'83-12-5'
p3312
aS''
asS'4763'
p3313
(lp3314
S'50-06-6'
p3315
aS''
asS'4762'
p3316
(lp3317
S'134-49-6'
p3318
aS''
asS'6741'
p3319
(lp3320
S'83-43-2'
p3321
aS''
asS'4764'
p3322
(lp3323
S'77-09-8'
p3324
aS''
asS'11487'
p3325
(lp3326
S'122-39-4'
p3327
aS'122-39-4'
p3328
aS'122-39-4'
p3329
aS''
asS'4768'
p3330
(lp3331
S'59-96-1'
p3332
aS''
asS'4167'
p3333
(lp3334
S'4969-02-2'
p3335
aS''
asS'4160'
p3336
(lp3337
S'58-18-4'
p3338
aS''
asS'11246'
p3339
(lp3340
S'563-63-3'
p3341
aS''
asS'11241'
p3342
(lp3343
S'563-47-3'
p3344
aS''
asS'11240'
p3345
(lp3346
S'563-46-2'
p3347
aS'26760-64-5'
p3348
aS''
asS'5809'
p3349
(lp3350
S'51-34-3'
p3351
aS''
asS'9958'
p3352
(lp3353
S'452-86-8'
p3354
aS''
asS'200'
p3355
(lp3356
S'3031-94-5'
p3357
aS''
asS'206'
p3358
(lp3359
S'50-99-7'
p3360
aS''
asS'7648'
p3361
(lp3362
S'103-34-4'
p3363
aS''
asS'8368'
p3364
(lp3365
S'118-69-4'
p3366
aS''
asS'10346'
p3367
(lp3368
S'497-39-2'
p3369
aS''
asS'10826'
p3370
(lp3371
S'537-00-8'
p3372
aS''
asS'6631'
p3373
(lp3374
S'58985-18-5'
p3375
aS''
asS'5959'
p3376
(lp3377
S'56-75-7'
p3378
aS'56-75-7'
p3379
aS''
asS'7814'
p3380
(lp3381
S'106-50-3'
p3382
aS'106-50-3'
p3383
aS'106-50-3'
p3384
aS''
asS'7812'
p3385
(lp3386
S'106-47-8'
p3387
aS''
asS'7813'
p3388
(lp3389
S'106-49-0'
p3390
aS'106-49-0'
p3391
aS'106-49-0'
p3392
aS''
asS'7810'
p3393
(lp3394
S'106-43-4'
p3395
aS''
asS'3496'
p3396
(lp3397
S'1071-83-6'
p3398
aS''
asS'3478'
p3399
(lp3400
S'29094-61-9'
p3401
aS''
asS'3494'
p3402
(lp3403
S'596-51-0'
p3404
aS''
asS'7818'
p3405
(lp3406
S'106-58-1'
p3407
aS''
asS'7819'
p3408
(lp3409
S'106-63-8'
p3410
aS''
asS'3658'
p3411
(lp3412
S'68-88-2'
p3413
aS''
asS'6540'
p3414
(lp3415
S'78-51-3'
p3416
aS''
asS'3657'
p3417
(lp3418
S'127-07-1'
p3419
aS''
asS'4604'
p3420
(lp3421
S'937-13-3'
p3422
aS''
asS'3652'
p3423
(lp3424
S'118-42-3'
p3425
aS''
asS'11666'
p3426
(lp3427
S'594-42-3'
p3428
aS'594-42-3'
p3429
aS''
asS'2520'
p3430
(lp3431
S'52-53-9'
p3432
aS''
asS'9782'
p3433
(lp3434
S'378-44-9'
p3435
aS''
asS'11463'
p3436
(lp3437
S'586-62-9'
p3438
aS''
asS'2662'
p3439
(lp3440
S'169590-42-5'
p3441
aS''
asS'2708'
p3442
(lp3443
S'305-03-3'
p3444
aS''
asS'7962'
p3445
(lp3446
S'108-87-2'
p3447
aS'108-87-2'
p3448
aS'108-87-2'
p3449
aS''
asS'7963'
p3450
(lp3451
S'108-89-4'
p3452
aS''
asS'7966'
p3453
(lp3454
S'108-93-0'
p3455
aS'108-93-0'
p3456
aS'108-93-0'
p3457
aS'108-93-0'
p3458
aS''
asS'7967'
p3459
(lp3460
S'108-94-1'
p3461
aS'108-94-1'
p3462
aS'108-94-1'
p3463
aS'108-94-1'
p3464
aS''
asS'7964'
p3465
(lp3466
S'108-90-7'
p3467
aS'108-90-7'
p3468
aS'108-90-7'
p3469
aS''
asS'7965'
p3470
(lp3471
S'108-91-8'
p3472
aS'108-91-8'
p3473
aS'108-91-8'
p3474
aS''
asS'10686'
p3475
(lp3476
S'526-73-8'
p3477
aS'25551-13-7'
p3478
aS'526-73-8'
p3479
aS'25551-13-7'
p3480
aS''
asS'10687'
p3481
(lp3482
S'526-75-0'
p3483
aS''
asS'4409'
p3484
(lp3485
S'42924-53-8'
p3486
aS''
asS'1821'
p3487
(lp3488
S'316-46-1'
p3489
aS''
asS'9570'
p3490
(lp3491
S'342-69-8'
p3492
aS''
asS'9279'
p3493
(lp3494
S'298-50-0'
p3495
aS''
asS'4976'
p3496
(lp3497
S'438-60-8'
p3498
aS''
asS'9578'
p3499
(lp3500
S'344-04-7'
p3501
aS''
asS'4971'
p3502
(lp3503
S'553-12-8'
p3504
aS''
asS'10757'
p3505
(lp3506
S'532-27-4'
p3507
aS'532-27-4'
p3508
aS''
asS'5392'
p3509
(lp3510
S'3383-96-8'
p3511
aS'3383-96-8'
p3512
aS'3383-96-8'
p3513
aS''
asS'11807'
p3514
(lp3515
S'124-68-5'
p3516
aS''
asS'5748'
p3517
(lp3518
S'50-10-2'
p3519
aS''
asS'9017'
p3520
(lp3521
S'150-84-5'
p3522
aS''
asS'5749'
p3523
(lp3524
S'50-10-2'
p3525
aS''
asS'3475'
p3526
(lp3527
S'21187-98-4'
p3528
aS''
asS'3476'
p3529
(lp3530
S'93479-97-1'
p3531
aS''
asS'835'
p3532
(lp3533
S'490-83-5'
p3534
aS''
asS'7360'
p3535
(lp3536
S'97-99-4'
p3537
aS''
asS'7361'
p3538
(lp3539
S'98-00-0'
p3540
aS'98-00-0'
p3541
aS'98-00-0'
p3542
aS''
asS'7362'
p3543
(lp3544
S'98-01-1'
p3545
aS'98-01-1'
p3546
aS'98-01-1'
p3547
aS''
asS'8880'
p3548
(lp3549
S'142-26-7'
p3550
aS''
asS'8881'
p3551
(lp3552
S'142-28-9'
p3553
aS''
asS'7367'
p3554
(lp3555
S'98-07-7'
p3556
aS''
asS'11933'
p3557
(lp3558
S'612-83-9'
p3559
aS''
asS'6307'
p3560
(lp3561
S'73-49-4'
p3562
aS''
asS'33'
p3563
(lp3564
S'107-20-0'
p3565
aS'107-20-0'
p3566
aS''
asS'5584'
p3567
(lp3568
S'739-71-9'
p3569
aS''
asS'9006'
p3570
(lp3571
S'149-74-6'
p3572
aS''
asS'9005'
p3573
(lp3574
S'149-73-5'
p3575
aS''
asS'7455'
p3576
(lp3577
S'99-75-2'
p3578
aS''
asS'7027'
p3579
(lp3580
S'90-80-2'
p3581
aS'90-80-2'
p3582
aS''
asS'9001'
p3583
(lp3584
S'149-45-1'
p3585
aS''
asS'5487'
p3586
(lp3587
S'51322-75-9'
p3588
aS''
asS'7029'
p3589
(lp3590
S'90-84-6'
p3591
aS''
asS'5482'
p3592
(lp3593
S'65899-73-2'
p3594
aS''
asS'9009'
p3595
(lp3596
S'150-46-9'
p3597
aS''
asS'784'
p3598
(lp3599
S'7722-84-1'
p3600
aS'7722-84-1'
p3601
aS'7722-84-1'
p3602
aS''
asS'783'
p3603
(lp3604
S'1333-74-0'
p3605
aS'1333-74-0'
p3606
aS''
asS'5245'
p3607
(lp3608
S'105462-24-6'
p3609
aS''
asS'1727'
p3610
(lp3611
S'504-24-5'
p3612
aS''
asS'7451'
p3613
(lp3614
S'99-63-8'
p3615
aS''
asS'6473'
p3616
(lp3617
S'77-28-1'
p3618
aS''
asS'2354'
p3619
(lp3620
S'536-71-0'
p3621
aS''
asS'7595'
p3622
(lp3623
S'102-07-8'
p3624
aS''
asS'7026'
p3625
(lp3626
S'90-72-2'
p3627
aS''
asS'7594'
p3628
(lp3629
S'102-06-7'
p3630
aS''
asS'5320'
p3631
(lp3632
S'144-80-9'
p3633
aS''
asS'7933'
p3634
(lp3635
S'108-43-0'
p3636
aS''
asS'7592'
p3637
(lp3638
S'102-01-2'
p3639
aS''
asS'7798'
p3640
(lp3641
S'106-31-0'
p3642
aS''
asS'3007'
p3643
(lp3644
S'300-62-9'
p3645
aS''
asS'7280'
p3646
(lp3647
S'96-12-8'
p3648
aS'96-12-8'
p3649
aS''
asS'6475'
p3650
(lp3651
S'77-38-3'
p3652
aS''
asS'3310'
p3653
(lp3654
S'33419-42-0'
p3655
aS''
asS'7791'
p3656
(lp3657
S'106-20-7'
p3658
aS''
asS'7790'
p3659
(lp3660
S'106-19-4'
p3661
aS''
asS'7792'
p3662
(lp3663
S'106-21-8'
p3664
aS''
asS'7797'
p3665
(lp3666
S'106-30-9'
p3667
aS''
asS'7934'
p3668
(lp3669
S'108-44-1'
p3670
aS'108-44-1'
p3671
aS'108-44-1'
p3672
aS''
asS'3312'
p3673
(lp3674
S'54350-48-0'
p3675
aS''
asS'7285'
p3676
(lp3677
S'96-18-4'
p3678
aS'96-18-4'
p3679
aS'96-18-4'
p3680
aS''
asS'10788'
p3681
(lp3682
S'533-74-4'
p3683
aS''
asS'7156'
p3684
(lp3685
S'93-70-9'
p3686
aS''
asS'7155'
p3687
(lp3688
S'93-69-6'
p3689
aS''
asS'7154'
p3690
(lp3691
S'93-68-5'
p3692
aS''
asS'7152'
p3693
(lp3694
S'135-37-5'
p3695
aS''
asS'8490'
p3696
(lp3697
S'121-82-4'
p3698
aS'121-82-4'
p3699
aS'121-82-4'
p3700
aS''
asS'988'
p3701
(lp3702
S'79-83-4'
p3703
aS''
asS'1032'
p3704
(lp3705
S'79-09-4'
p3706
aS'79-09-4'
p3707
aS'79-09-4'
p3708
aS'79-09-4'
p3709
aS''
asS'8497'
p3710
(lp3711
S'121-92-6'
p3712
aS''
asS'1030'
p3713
(lp3714
S'57-55-6'
p3715
aS'57-55-6'
p3716
aS''
asS'9008'
p3717
(lp3718
S'150-38-9'
p3719
aS''
asS'7289'
p3720
(lp3721
S'96-23-1'
p3722
aS''
asS'8496'
p3723
(lp3724
S'121-91-5'
p3725
aS''
asS'7062'
p3726
(lp3727
S'91-68-9'
p3728
aS''
asS'7288'
p3729
(lp3730
S'96-22-0'
p3731
aS'96-22-0'
p3732
aS'96-22-0'
p3733
aS''
asS'5950'
p3734
(lp3735
S'56-41-7'
p3736
aS'338-69-2'
p3737
aS''
asS'785'
p3738
(lp3739
S'123-31-9'
p3740
aS'123-31-9'
p3741
aS'123-31-9'
p3742
aS''
asS'8066'
p3743
(lp3744
S'110-65-6'
p3745
aS''
asS'8067'
p3746
(lp3747
S'110-66-7'
p3748
aS'110-66-7'
p3749
aS''
asS'8064'
p3750
(lp3751
S'110-63-4'
p3752
aS'110-63-4'
p3753
aS''
asS'8065'
p3754
(lp3755
S'110-64-5'
p3756
aS''
asS'8062'
p3757
(lp3758
S'110-61-2'
p3759
aS'110-61-2'
p3760
aS''
asS'8063'
p3761
(lp3762
S'110-62-3'
p3763
aS'110-62-3'
p3764
aS'110-62-3'
p3765
aS'110-62-3'
p3766
aS''
asS'8060'
p3767
(lp3768
S'110-58-7'
p3769
aS'110-58-7'
p3770
aS''
asS'7485'
p3771
(lp3772
S'100-17-4'
p3773
aS''
asS'787'
p3774
(lp3775
S'7803-49-8'
p3776
aS''
asS'6525'
p3777
(lp3778
S'78-27-3'
p3779
aS''
asS'6527'
p3780
(lp3781
S'78-30-8'
p3782
aS'78-30-8'
p3783
aS''
asS'5656'
p3784
(lp3785
S'93413-69-5'
p3786
aS''
asS'6528'
p3787
(lp3788
S'26444-49-5'
p3789
aS''
asS'8260'
p3790
(lp3791
S'115-21-9'
p3792
aS''
asS'7488'
p3793
(lp3794
S'100-20-9'
p3795
aS''
asS'5248'
p3796
(lp3797
S'1191-50-0'
p3798
aS''
asS'7756'
p3799
(lp3800
S'105-44-2'
p3801
aS''
asS'6058'
p3802
(lp3803
S'60-23-1'
p3804
aS''
asS'2895'
p3805
(lp3806
S'303-53-7'
p3807
aS''
asS'2893'
p3808
(lp3809
S'456-59-7'
p3810
aS''
asS'8005'
p3811
(lp3812
S'109-69-3'
p3813
aS''
asS'8663'
p3814
(lp3815
S'135-19-3'
p3816
aS''
asS'1102'
p3817
(lp3818
S'124-20-9'
p3819
aS''
asS'1103'
p3820
(lp3821
S'71-44-3'
p3822
aS'68956-56-9'
p3823
aS''
asS'1100'
p3824
(lp3825
S'7782-99-2'
p3826
aS''
asS'8667'
p3827
(lp3828
S'91-80-5'
p3829
aS''
asS'6478'
p3830
(lp3831
S'77-47-4'
p3832
aS'77-47-4'
p3833
aS'77-47-4'
p3834
aS''
asS'10188'
p3835
(lp3836
S'480-30-8'
p3837
aS''
asS'3869'
p3838
(lp3839
S'36894-69-6'
p3840
aS''
asS'4455'
p3841
(lp3842
S'2009-64-5'
p3843
aS''
asS'4086'
p3844
(lp3845
S'586-06-1'
p3846
aS''
asS'8919'
p3847
(lp3848
S'143-15-7'
p3849
aS''
asS'4454'
p3850
(lp3851
S'1404-04-2'
p3852
aS''
asS'8898'
p3853
(lp3854
S'142-77-8'
p3855
aS''
asS'7073'
p3856
(lp3857
S'91-99-6'
p3858
aS''
asS'8400'
p3859
(lp3860
S'119-53-9'
p3861
aS''
asS'8404'
p3862
(lp3863
S'119-64-2'
p3864
aS''
asS'8405'
p3865
(lp3866
S'119-65-3'
p3867
aS'119-65-3'
p3868
aS''
asS'7570'
p3869
(lp3870
S'101-68-8'
p3871
aS'26447-40-5'
p3872
aS'9016-87-9'
p3873
aS'101-68-8'
p3874
aS'101-68-8'
p3875
aS''
asS'7573'
p3876
(lp3877
S'101-72-4'
p3878
aS''
asS'6419'
p3879
(lp3880
S'76-01-7'
p3881
aS'76-01-7'
p3882
aS'76-01-7'
p3883
aS''
asS'6418'
p3884
(lp3885
S'75-99-0'
p3886
aS'75-99-0'
p3887
aS''
asS'7577'
p3888
(lp3889
S'101-77-9'
p3890
aS'101-77-9'
p3891
aS'101-77-9'
p3892
aS''
asS'4909'
p3893
(lp3894
S'125-33-7'
p3895
aS''
asS'7579'
p3896
(lp3897
S'101-80-4'
p3898
aS''
asS'6417'
p3899
(lp3900
S'75-98-9'
p3901
aS''
asS'5721'
p3902
(lp3903
S'139110-80-8'
p3904
aS''
asS'5726'
p3905
(lp3906
S'30516-87-1'
p3907
aS''
asS'5727'
p3908
(lp3909
S'7646-85-7'
p3910
aS'7646-85-7'
p3911
aS'7646-85-7'
p3912
aS''
asS'6413'
p3913
(lp3914
S'75-94-5'
p3915
aS''
asS'7777'
p3916
(lp3917
S'105-83-9'
p3918
aS''
asS'7774'
p3919
(lp3920
S'105-76-0'
p3921
aS''
asS'7773'
p3922
(lp3923
S'105-74-8'
p3924
aS''
asS'7771'
p3925
(lp3926
S'105-67-9'
p3927
aS''
asS'1893'
p3928
(lp3929
S'2942-42-9'
p3930
aS''
asS'5161'
p3931
(lp3932
S'552-94-3'
p3933
aS''
asS'3917'
p3934
(lp3935
S'829-74-3'
p3936
aS''
asS'3916'
p3937
(lp3938
S'60-99-1'
p3939
aS''
asS'3911'
p3940
(lp3941
S'53714-56-0'
p3942
aS''
asS'5558'
p3943
(lp3944
S'75-25-2'
p3945
aS'75-25-2'
p3946
aS''
asS'6732'
p3947
(lp3948
S'83-26-1'
p3949
aS'83-26-1'
p3950
aS''
asS'10137'
p3951
(lp3952
S'475-20-7'
p3953
aS''
asS'4794'
p3954
(lp3955
S'51276-47-2'
p3956
aS''
asS'4797'
p3957
(lp3958
S'51528-59-7'
p3959
aS''
asS'5836'
p3960
(lp3961
S'76-57-3'
p3962
aS''
asS'8086'
p3963
(lp3964
S'110-97-4'
p3965
aS''
asS'8087'
p3966
(lp3967
S'110-98-5'
p3968
aS''
asS'8081'
p3969
(lp3970
S'110-88-3'
p3971
aS''
asS'8082'
p3972
(lp3973
S'110-89-4'
p3974
aS''
asS'5831'
p3975
(lp3976
S'51-83-2'
p3977
aS''
asS'4158'
p3978
(lp3979
S'113-45-1'
p3980
aS''
asS'11251'
p3981
(lp3982
S'563-80-4'
p3983
aS'563-80-4'
p3984
aS'563-80-4'
p3985
aS''
asS'9923'
p3986
(lp3987
S'440-60-8'
p3988
aS''
asS'8219'
p3989
(lp3990
S'112-90-3'
p3991
aS''
asS'11579'
p3992
(lp3993
S'123-76-2'
p3994
aS'123-76-2'
p3995
aS''
asS'983'
p3996
(lp3997
S'10380-08-2'
p3998
aS''
asS'218'
p3999
(lp4000
S'3672-03-5'
p4001
aS''
asS'6089'
p4002
(lp4003
S'61-50-7'
p4004
aS''
asS'6087'
p4005
(lp4006
S'61-32-5'
p4007
aS''
asS'6083'
p4008
(lp4009
S'61-19-8'
p4010
aS''
asS'11649'
p4011
(lp4012
S'593-81-7'
p4013
aS''
asS'5206'
p4014
(lp4015
S'28523-86-6'
p4016
aS''
asS'6649'
p4017
(lp4018
S'80-51-3'
p4019
aS'80-51-3'
p4020
aS''
asS'980'
p4021
(lp4022
S'100-02-7'
p4023
aS''
asS'4680'
p4024
(lp4025
S'58-74-2'
p4026
aS''
asS'6646'
p4027
(lp4028
S'80-49-9'
p4029
aS''
asS'6647'
p4030
(lp4031
S'80-50-2'
p4032
aS''
asS'6641'
p4033
(lp4034
S'80-43-3'
p4035
aS''
asS'6643'
p4036
(lp4037
S'80-46-6'
p4038
aS''
asS'5906'
p4039
(lp4040
S'54-49-9'
p4041
aS''
asS'4'
(lp4042
S'78-96-6'
p4043
aS'78-96-6'
p4044
aS''
asS'6124'
p4045
(lp4046
S'62-75-9'
p4047
aS'62-75-9'
p4048
aS''
asS'6497'
p4049
(lp4050
S'77-78-1'
p4051
aS'77-78-1'
p4052
aS'77-78-1'
p4053
aS''
asS'3488'
p4054
(lp4055
S'10238-21-8'
p4056
aS''
asS'7803'
p4057
(lp4058
S'106-36-5'
p4059
aS''
asS'7802'
p4060
(lp4061
S'106-35-4'
p4062
aS'106-35-4'
p4063
aS''
asS'7809'
p4064
(lp4065
S'106-42-3'
p4066
aS'68650-36-2'
p4067
aS'106-42-3'
p4068
aS'106-42-3'
p4069
aS''
asS'8215'
p4070
(lp4071
S'112-85-6'
p4072
aS''
asS'3485'
p4073
(lp4074
S'111-30-8'
p4075
aS'111-30-8'
p4076
aS'111-30-8'
p4077
aS''
asS'3487'
p4078
(lp4079
S'77-21-4'
p4080
aS''
asS'11641'
p4081
(lp4082
S'593-60-2'
p4083
aS'593-60-2'
p4084
aS''
asS'2474'
p4085
(lp4086
S'2180-92-9'
p4087
aS''
asS'8217'
p4088
(lp4089
S'112-88-9'
p4090
aS'27070-58-2'
p4091
aS'68855-60-7'
p4092
aS''
asS'3647'
p4093
(lp4094
S'135-09-1'
p4095
aS''
asS'4568'
p4096
(lp4097
S'1400-61-9'
p4098
aS''
asS'3640'
p4099
(lp4100
S'50-23-7'
p4101
aS''
asS'6398'
p4102
(lp4103
S'75-78-5'
p4104
aS''
asS'6399'
p4105
(lp4106
S'75-79-6'
p4107
aS''
asS'2554'
p4108
(lp4109
S'298-46-4'
p4110
aS''
asS'6391'
p4111
(lp4112
S'75-71-8'
p4113
aS'75-71-8'
p4114
aS''
asS'6396'
p4115
(lp4116
S'75-76-3'
p4117
aS''
asS'6397'
p4118
(lp4119
S'75-77-4'
p4120
aS''
asS'6394'
p4121
(lp4122
S'75-74-1'
p4123
aS'75-74-1'
p4124
aS''
asS'2391'
p4125
(lp4126
S'603-50-9'
p4127
aS''
asS'6491'
p4128
(lp4129
S'77-71-4'
p4130
aS''
asS'10178'
p4131
(lp4132
S'479-45-8'
p4133
aS'479-45-8'
p4134
aS''
asS'4893'
p4135
(lp4136
S'19216-56-9'
p4137
aS''
asS'2771'
p4138
(lp4139
S'59729-33-8'
p4140
aS''
asS'4891'
p4141
(lp4142
S'55268-74-1'
p4143
aS''
asS'3002'
p4144
(lp4145
S'5863-40-1'
p4146
aS''
asS'4894'
p4147
(lp4148
S'50-24-8'
p4149
aS''
asS'7979'
p4150
(lp4151
S'109-16-0'
p4152
aS''
asS'6267'
p4153
(lp4154
S'70-47-3'
p4155
aS''
asS'6262'
p4156
(lp4157
S'70-26-8'
p4158
aS''
asS'9354'
p4159
(lp4160
S'304-55-2'
p4161
aS''
asS'2374'
p4162
(lp4163
S'88-58-4'
p4164
aS''
asS'2471'
p4165
(lp4166
S'28395-03-1'
p4167
aS''
asS'6269'
p4168
(lp4169
S'70-55-3'
p4170
aS''
asS'6061'
p4171
(lp4172
S'60-34-4'
p4173
aS'60-34-4'
p4174
aS''
asS'4162'
p4175
(lp4176
S'125-64-4'
p4177
aS''
asS'2470'
p4178
(lp4179
S'92953-54-3'
p4180
aS''
asS'2769'
p4181
(lp4182
S'81098-60-4'
p4183
aS''
asS'3261'
p4184
(lp4185
S'29975-16-4'
p4186
aS''
asS'5125'
p4187
(lp4188
S'78-48-8'
p4189
aS''
asS'10037'
p4190
(lp4191
S'463-49-0'
p4192
aS''
asS'847'
p4193
(lp4194
S'62697-73-8'
p4195
aS''
asS'3464'
p4196
(lp4197
S'77482-44-1'
p4198
aS''
asS'3463'
p4199
(lp4200
S'25812-30-0'
p4201
aS''
asS'842'
p4202
(lp4203
S'686-58-8'
p4204
aS''
asS'8899'
p4205
(lp4206
S'142-78-9'
p4207
aS''
asS'8897'
p4208
(lp4209
S'142-73-4'
p4210
aS''
asS'8896'
p4211
(lp4212
S'142-72-3'
p4213
aS''
asS'7371'
p4214
(lp4215
S'98-11-3'
p4216
aS''
asS'8893'
p4217
(lp4218
S'142-64-3'
p4219
aS'142-64-3'
p4220
aS''
asS'7375'
p4221
(lp4222
S'98-16-8'
p4223
aS''
asS'3468'
p4224
(lp4225
S'14426-25-6'
p4226
aS''
asS'7232'
p4227
(lp4228
S'95-33-0'
p4229
aS''
asS'9677'
p4230
(lp4231
S'360-70-3'
p4232
aS''
asS'3360'
p4233
(lp4234
S'23779-99-9'
p4235
aS''
asS'7231'
p4236
(lp4237
S'95-32-9'
p4238
aS''
asS'9032'
p4239
(lp4240
S'151-50-8'
p4241
aS'151-50-8'
p4242
aS'151-50-8'
p4243
aS''
asS'9034'
p4244
(lp4245
S'151-83-7'
p4246
aS''
asS'7150'
p4247
(lp4248
S'93-58-3'
p4249
aS''
asS'10257'
p4250
(lp4251
S'487-93-4'
p4252
aS''
asS'5238'
p4253
(lp4254
S'7681-82-5'
p4255
aS''
asS'4753'
p4256
(lp4257
S'63-98-9'
p4258
aS''
asS'6944'
p4259
(lp4260
S'88-72-2'
p4261
aS'88-72-2'
p4262
aS'88-72-2'
p4263
aS''
asS'5234'
p4264
(lp4265
S'7647-14-5'
p4266
aS''
asS'5235'
p4267
(lp4268
S'7681-49-4'
p4269
aS'7681-49-4'
p4270
aS''
asS'11816'
p4271
(lp4272
S'606-28-0'
p4273
aS''
asS'11813'
p4274
(lp4275
S'606-20-2'
p4276
aS'606-20-2'
p4277
aS''
asS'6559'
p4278
(lp4279
S'78-82-0'
p4280
aS'78-82-0'
p4281
aS'78-82-0'
p4282
aS''
asS'9794'
p4283
(lp4284
S'383-63-1'
p4285
aS''
asS'6481'
p4286
(lp4287
S'77-51-0'
p4288
aS''
asS'753'
p4289
(lp4290
S'25618-55-7'
p4291
aS'56-81-5'
p4292
aS'56-81-5'
p4293
aS'56-81-5'
p4294
aS''
asS'751'
p4295
(lp4296
S'367-47-5'
p4297
aS''
asS'750'
p4298
(lp4299
S'56-40-6'
p4300
aS'56-40-6'
p4301
aS''
asS'757'
p4302
(lp4303
S'79-14-1'
p4304
aS'79-14-1'
p4305
aS''
asS'737'
p4306
(lp4307
S'10139-18-1'
p4308
aS''
asS'2735'
p4309
(lp4310
S'67-97-0'
p4311
aS''
asS'6883'
p4312
(lp4313
S'87-33-2'
p4314
aS''
asS'2955'
p4315
(lp4316
S'80-08-0'
p4317
aS'80-08-0'
p4318
aS''
asS'2950'
p4319
(lp4320
S'117-10-2'
p4321
aS''
asS'5344'
p4322
(lp4323
S'127-69-5'
p4324
aS''
asS'1024'
p4325
(lp4326
S'72909-34-3'
p4327
aS''
asS'7168'
p4328
(lp4329
S'68608-79-7'
p4330
aS''
asS'1031'
p4331
(lp4332
S'71-23-8'
p4333
aS'71-23-8'
p4334
aS'71-23-8'
p4335
aS'71-23-8'
p4336
aS''
asS'5340'
p4337
(lp4338
S'72-14-0'
p4339
aS''
asS'5342'
p4340
(lp4341
S'57-96-5'
p4342
aS''
asS'4906'
p4343
(lp4344
S'721-50-6'
p4345
aS''
asS'7164'
p4346
(lp4347
S'93-83-4'
p4348
aS''
asS'7165'
p4349
(lp4350
S'93-89-0'
p4351
aS''
asS'7040'
p4352
(lp4353
S'91-08-7'
p4354
aS'91-08-7'
p4355
aS''
asS'8079'
p4356
(lp4357
S'110-83-8'
p4358
aS'110-83-8'
p4359
aS''
asS'604'
p4360
(lp4361
S'526-95-4'
p4362
aS''
asS'607'
p4363
(lp4364
S'87-73-0'
p4365
aS''
asS'4362'
p4366
(lp4367
S'128-53-0'
p4368
aS''
asS'8071'
p4369
(lp4370
S'110-71-4'
p4371
aS'110-71-4'
p4372
aS''
asS'1201'
p4373
(lp4374
S'142632-32-4'
p4375
aS''
asS'6325'
p4376
(lp4377
S'74-85-1'
p4378
aS'74-85-1'
p4379
aS''
asS'8076'
p4380
(lp4381
S'110-80-5'
p4382
aS'110-80-5'
p4383
aS'110-80-5'
p4384
aS'110-80-5'
p4385
aS''
asS'6629'
p4386
(lp4387
S'80-15-9'
p4388
aS''
asS'5641'
p4389
(lp4390
S'51-79-6'
p4391
aS'51-79-6'
p4392
aS''
asS'6041'
p4393
(lp4394
S'59-42-7'
p4395
aS'61-76-7'
p4396
aS''
asS'8275'
p4397
(lp4398
S'115-44-6'
p4399
aS''
asS'5645'
p4400
(lp4401
S'128-13-2'
p4402
aS''
asS'8271'
p4403
(lp4404
S'115-38-8'
p4405
aS''
asS'3108'
p4406
(lp4407
S'58-32-2'
p4408
aS''
asS'3105'
p4409
(lp4410
S'52365-63-6'
p4411
aS''
asS'637'
p4412
(lp4413
S'951-77-9'
p4414
aS''
asS'10770'
p4415
(lp4416
S'532-77-4'
p4417
aS''
asS'3102'
p4418
(lp4419
S'119-61-9'
p4420
aS'119-61-9'
p4421
aS''
asS'3103'
p4422
(lp4423
S'147-20-6'
p4424
aS''
asS'1110'
p4425
(lp4426
S'110-15-6'
p4427
aS'110-15-6'
p4428
aS''
asS'8670'
p4429
(lp4430
S'135-37-5'
p4431
aS''
asS'1115'
p4432
(lp4433
S'57-50-1'
p4434
aS'57-50-1'
p4435
aS'57-50-1'
p4436
aS'57-50-1'
p4437
aS''
asS'1119'
p4438
(lp4439
S'7446-09-5'
p4440
aS'7446-09-5'
p4441
aS'7446-09-5'
p4442
aS''
asS'1118'
p4443
(lp4444
S'7664-93-9'
p4445
aS'7664-93-9'
p4446
aS'7664-93-9'
p4447
aS''
asS'8679'
p4448
(lp4449
S'135-88-6'
p4450
aS'135-88-6'
p4451
aS''
asS'2478'
p4452
(lp4453
S'55-98-1'
p4454
aS''
asS'4093'
p4455
(lp4456
S'79-41-4'
p4457
aS'79-41-4'
p4458
aS'79-41-4'
p4459
aS''
asS'6781'
p4460
(lp4461
S'84-66-2'
p4462
aS'84-66-2'
p4463
aS'84-66-2'
p4464
aS''
asS'4091'
p4465
(lp4466
S'657-24-9'
p4467
aS''
asS'4097'
p4468
(lp4469
S'5818-17-7'
p4470
aS''
asS'4095'
p4471
(lp4472
S'76-99-3'
p4473
aS''
asS'4099'
p4474
(lp4475
S'50-11-3'
p4476
aS''
asS'6668'
p4477
(lp4478
S'81-11-8'
p4479
aS''
asS'8125'
p4480
(lp4481
S'111-66-0'
p4482
aS''
asS'5735'
p4483
(lp4484
S'43200-80-2'
p4485
aS''
asS'5734'
p4486
(lp4487
S'68291-97-4'
p4488
aS''
asS'10548'
p4489
(lp4490
S'6736-03-4'
p4491
aS''
asS'5733'
p4492
(lp4493
S'33369-31-2'
p4494
aS''
asS'5732'
p4495
(lp4496
S'82626-48-0'
p4497
aS''
asS'487'
p4498
(lp4499
S'516-05-2'
p4500
aS''
asS'8411'
p4501
(lp4502
S'119-90-4'
p4503
aS'119-90-4'
p4504
aS''
asS'8414'
p4505
(lp4506
S'119-96-0'
p4507
aS''
asS'6468'
p4508
(lp4509
S'77-10-1'
p4510
aS''
asS'6469'
p4511
(lp4512
S'77-15-6'
p4513
aS''
asS'8635'
p4514
(lp4515
S'134-20-3'
p4516
aS''
asS'9809'
p4517
(lp4518
S'393-75-9'
p4519
aS''
asS'7585'
p4520
(lp4521
S'101-86-0'
p4522
aS''
asS'7586'
p4523
(lp4524
S'101-90-6'
p4525
aS''
asS'6464'
p4526
(lp4527
S'77-02-1'
p4528
aS''
asS'7582'
p4529
(lp4530
S'101-83-7'
p4531
aS''
asS'7486'
p4532
(lp4533
S'100-18-5'
p4534
aS''
asS'7747'
p4535
(lp4536
S'105-34-0'
p4537
aS''
asS'5300'
p4538
(lp4539
S'18883-66-4'
p4540
aS''
asS'7748'
p4541
(lp4542
S'105-36-2'
p4543
aS''
asS'7749'
p4544
(lp4545
S'105-37-3'
p4546
aS''
asS'3299'
p4547
(lp4548
S'29177-84-2'
p4549
aS''
asS'8306'
p4550
(lp4551
S'116-37-0'
p4552
aS''
asS'6721'
p4553
(lp4554
S'82-71-3'
p4555
aS''
asS'8304'
p4556
(lp4557
S'116-17-6'
p4558
aS''
asS'8303'
p4559
(lp4560
S'116-16-5'
p4561
aS''
asS'6726'
p4562
(lp4563
S'82-92-8'
p4564
aS''
asS'8301'
p4565
(lp4566
S'116-14-3'
p4567
aS'116-14-3'
p4568
aS''
asS'8265'
p4569
(lp4570
S'115-27-5'
p4571
aS''
asS'4786'
p4572
(lp4573
S'492-39-7'
p4574
aS''
asS'6729'
p4575
(lp4576
S'82-95-1'
p4577
aS''
asS'4781'
p4578
(lp4579
S'50-33-9'
p4580
aS''
asS'8096'
p4581
(lp4582
S'111-17-1'
p4583
aS''
asS'8094'
p4584
(lp4585
S'111-14-8'
p4586
aS''
asS'8091'
p4587
(lp4588
S'111-11-5'
p4589
aS'67762-39-4'
p4590
aS''
asS'5826'
p4591
(lp4592
S'51-64-9'
p4593
aS''
asS'7489'
p4594
(lp4595
S'100-21-0'
p4596
aS'100-21-0'
p4597
aS''
asS'11260'
p4598
(lp4599
S'565-59-3'
p4600
aS''
asS'9864'
p4601
(lp4602
S'420-04-2'
p4603
aS'420-04-2'
p4604
aS'420-04-2'
p4605
aS'420-04-2'
p4606
aS''
asS'8263'
p4607
(lp4608
S'115-25-3'
p4609
aS''
asS'9934'
p4610
(lp4611
S'2756-91-4'
p4612
aS''
asS'5314'
p4613
(lp4614
S'306-40-1'
p4615
aS''
asS'6098'
p4616
(lp4617
S'61-72-3'
p4618
aS''
asS'3283'
p4619
(lp4620
S'60-29-7'
p4621
aS'69227-20-9'
p4622
aS'60-29-7'
p4623
aS'60-29-7'
p4624
aS''
asS'5961'
p4625
(lp4626
S'56-85-9'
p4627
aS'5959-95-5'
p4628
aS'56-85-9'
p4629
aS''
asS'6090'
p4630
(lp4631
S'61-51-8'
p4632
aS''
asS'5962'
p4633
(lp4634
S'56-87-1'
p4635
aS'923-27-3'
p4636
aS''
asS'5963'
p4637
(lp4638
S'56-93-9'
p4639
aS''
asS'8124'
p4640
(lp4641
S'111-64-8'
p4642
aS''
asS'6658'
p4643
(lp4644
S'80-62-6'
p4645
aS'80-62-6'
p4646
aS'80-62-6'
p4647
aS''
asS'6654'
p4648
(lp4649
S'67762-73-6'
p4650
aS'7785-70-8'
p4651
aS'80-56-8'
p4652
aS'80-56-8'
p4653
aS''
asS'6327'
p4654
(lp4655
S'74-87-3'
p4656
aS'74-87-3'
p4657
aS'74-87-3'
p4658
aS''
asS'10800'
p4659
(lp4660
S'534-52-1'
p4661
aS'534-52-1'
p4662
aS''
asS'9385'
p4663
(lp4664
S'306-83-2'
p4665
aS''
asS'199'
p4666
(lp4667
S'306-60-5'
p4668
aS''
asS'195'
p4669
(lp4670
S'19046-78-7'
p4671
aS''
asS'196'
p4672
(lp4673
S'124-04-9'
p4674
aS'124-04-9'
p4675
aS''
asS'190'
p4676
(lp4677
S'73-24-5'
p4678
aS''
asS'193'
p4679
(lp4680
S'979-92-0'
p4681
aS''
asS'6385'
p4682
(lp4683
S'75-64-9'
p4684
aS''
asS'6387'
p4685
(lp4686
S'75-66-1'
p4687
aS''
asS'6386'
p4688
(lp4689
S'75-65-0'
p4690
aS'75-65-0'
p4691
aS'75-65-0'
p4692
aS''
asS'3672'
p4693
(lp4694
S'15687-27-1'
p4695
aS'15687-27-1'
p4696
aS''
asS'6389'
p4697
(lp4698
S'75-69-4'
p4699
aS'75-69-4'
p4700
aS''
asS'3675'
p4701
(lp4702
S'51-71-8'
p4703
aS''
asS'2541'
p4704
(lp4705
S'139481-59-7'
p4706
aS''
asS'11683'
p4707
(lp4708
S'595-33-5'
p4709
aS''
asS'10517'
p4710
(lp4711
S'509-74-0'
p4712
aS''
asS'11443'
p4713
(lp4714
S'584-84-9'
p4715
aS'584-84-9'
p4716
aS'584-84-9'
p4717
aS''
asS'6912'
p4718
(lp4719
S'488-81-3'
p4720
aS''
asS'10332'
p4721
(lp4722
S'496-72-0'
p4723
aS''
asS'3589'
p4724
(lp4725
S'76-44-8'
p4726
aS'76-44-8'
p4727
aS''
asS'2761'
p4728
(lp4729
S'298-57-7'
p4730
aS''
asS'2764'
p4731
(lp4732
S'85721-33-1'
p4733
aS''
asS'999'
p4734
(lp4735
S'103-82-2'
p4736
aS''
asS'7909'
p4737
(lp4738
S'108-10-1'
p4739
aS'108-10-1'
p4740
aS'108-10-1'
p4741
aS''
asS'4335'
p4742
(lp4743
S'15376-53-1'
p4744
aS''
asS'7900'
p4745
(lp4746
S'107-98-2'
p4747
aS'107-98-2'
p4748
aS'107-98-2'
p4749
aS''
asS'8582'
p4750
(lp4751
S'131-99-7'
p4752
aS''
asS'6274'
p4753
(lp4754
S'71-00-1'
p4755
aS''
asS'6277'
p4756
(lp4757
S'71-48-7'
p4758
aS''
asS'6276'
p4759
(lp4760
S'71-41-0'
p4761
aS''
asS'6279'
p4762
(lp4763
S'71-58-9'
p4764
aS''
asS'6278'
p4765
(lp4766
S'71-55-6'
p4767
aS'71-55-6'
p4768
aS'71-55-6'
p4769
aS''
asS'4420'
p4770
(lp4771
S'300-76-5'
p4772
aS'300-76-5'
p4773
aS''
asS'4421'
p4774
(lp4775
S'389-08-2'
p4776
aS''
asS'8883'
p4777
(lp4778
S'142-30-3'
p4779
aS''
asS'998'
p4780
(lp4781
S'122-78-1'
p4782
aS''
asS'3677'
p4783
(lp4784
S'100-92-5'
p4785
aS''
asS'3291'
p4786
(lp4787
S'77-67-8'
p4788
aS''
asS'9550'
p4789
(lp4790
S'334-88-3'
p4791
aS'334-88-3'
p4792
aS''
asS'4956'
p4793
(lp4794
S'41598-07-6'
p4795
aS''
asS'9287'
p4796
(lp4797
S'299-26-3'
p4798
aS''
asS'4955'
p4799
(lp4800
S'13367-85-6'
p4801
aS''
asS'7346'
p4802
(lp4803
S'97-72-3'
p4804
aS''
asS'7347'
p4805
(lp4806
S'97-74-5'
p4807
aS''
asS'7344'
p4808
(lp4809
S'97-64-3'
p4810
aS''
asS'7345'
p4811
(lp4812
S'97-69-8'
p4813
aS''
asS'7343'
p4814
(lp4815
S'97-63-2'
p4816
aS''
asS'10796'
p4817
(lp4818
S'534-17-8'
p4819
aS''
asS'10797'
p4820
(lp4821
S'534-22-5'
p4822
aS''
asS'3290'
p4823
(lp4824
S'1094-08-2'
p4825
aS''
asS'854'
p4826
(lp4827
S'50-69-1'
p4828
aS''
asS'855'
p4829
(lp4830
S'598-35-6'
p4831
aS''
asS'856'
p4832
(lp4833
S'79-63-0'
p4834
aS''
asS'850'
p4835
(lp4836
S'60802-29-1'
p4837
aS''
asS'3454'
p4838
(lp4839
S'82410-32-0'
p4840
aS''
asS'11392'
p4841
(lp4842
S'581-89-5'
p4843
aS'581-89-5'
p4844
aS''
asS'9002'
p4845
(lp4846
S'149-45-1'
p4847
aS''
asS'6'
(lp4848
S'97-00-7'
p4849
aS''
asS'8909'
p4850
(lp4851
S'142-96-1'
p4852
aS''
asS'11914'
p4853
(lp4854
S'611-71-2'
p4855
aS''
asS'7005'
p4856
(lp4857
S'90-15-3'
p4858
aS''
asS'11918'
p4859
(lp4860
S'38888-98-1'
p4861
aS''
asS'10240'
p4862
(lp4863
S'486-17-9'
p4864
aS''
asS'7301'
p4865
(lp4866
S'96-47-9'
p4867
aS''
asS'3973'
p4868
(lp4869
S'154447-36-6'
p4870
aS''
asS'8906'
p4871
(lp4872
S'142-90-5'
p4873
aS''
asS'8900'
p4874
(lp4875
S'142-82-5'
p4876
aS'142-82-5'
p4877
aS'142-82-5'
p4878
aS''
asS'11867'
p4879
(lp4880
S'1333-39-7'
p4881
aS''
asS'8902'
p4882
(lp4883
S'142-84-7'
p4884
aS''
asS'5336'
p4885
(lp4886
S'144-83-2'
p4887
aS'144-83-2'
p4888
aS''
asS'2910'
p4889
(lp4890
S'2259-96-3'
p4891
aS''
asS'743'
p4892
(lp4893
S'110-94-1'
p4894
aS'110-94-1'
p4895
aS'68603-87-2'
p4896
aS'68937-69-9'
p4897
aS''
asS'2911'
p4898
(lp4899
S'77-39-4'
p4900
aS''
asS'991'
p4901
(lp4902
S'56-38-2'
p4903
aS'56-38-2'
p4904
aS''
asS'3063'
p4905
(lp4906
S'125-28-0'
p4907
aS''
asS'3061'
p4908
(lp4909
S'71-63-6'
p4910
aS''
asS'2913'
p4911
(lp4912
S'129-03-3'
p4913
aS''
asS'6895'
p4914
(lp4915
S'12002-48-1'
p4916
aS'87-61-6'
p4917
aS''
asS'2949'
p4918
(lp4919
S'17230-88-5'
p4920
aS''
asS'1050'
p4921
(lp4922
S'65-22-5'
p4923
aS''
asS'1051'
p4924
(lp4925
S'54-47-7'
p4926
aS''
asS'5355'
p4927
(lp4928
S'15676-16-1'
p4929
aS''
asS'1054'
p4930
(lp4931
S'65-23-6'
p4932
aS''
asS'5352'
p4933
(lp4934
S'38194-50-2'
p4935
aS''
asS'5351'
p4936
(lp4937
S'144-75-2'
p4938
aS''
asS'3410'
p4939
(lp4940
S'73573-87-2'
p4941
aS''
asS'6077'
p4942
(lp4943
S'61-00-7'
p4944
aS''
asS'5359'
p4945
(lp4946
S'40828-46-4'
p4947
aS''
asS'5358'
p4948
(lp4949
S'103628-46-2'
p4950
aS''
asS'4312'
p4951
(lp4952
S'51321-79-0'
p4953
aS''
asS'619'
p4954
(lp4955
S'551-84-8'
p4956
aS''
asS'1183'
p4957
(lp4958
S'121-33-5'
p4959
aS''
asS'612'
p4960
(lp4961
S'50-21-5'
p4962
aS'50-21-5'
p4963
aS'79-33-4'
p4964
aS''
asS'6076'
p4965
(lp4966
S'60-92-4'
p4967
aS''
asS'2375'
p4968
(lp4969
S'90357-06-5'
p4970
aS''
asS'8795'
p4971
(lp4972
S'140-31-8'
p4973
aS''
asS'7044'
p4974
(lp4975
S'91-17-8'
p4976
aS''
asS'3117'
p4977
(lp4978
S'97-77-8'
p4979
aS'97-77-8'
p4980
aS'97-77-8'
p4981
aS'97-77-8'
p4982
aS''
asS'2370'
p4983
(lp4984
S'674-38-4'
p4985
aS''
asS'3114'
p4986
(lp4987
S'3737-09-5'
p4988
aS''
asS'2479'
p4989
(lp4990
S'125-40-6'
p4991
aS''
asS'10908'
p4992
(lp4993
S'540-88-5'
p4994
aS'540-88-5'
p4995
aS'540-88-5'
p4996
aS''
asS'2372'
p4997
(lp4998
S'59170-23-9'
p4999
aS''
asS'1474'
p5000
(lp5001
S'366-18-7'
p5002
aS''
asS'8646'
p5003
(lp5004
S'134-58-7'
p5005
aS''
asS'8640'
p5006
(lp5007
S'134-32-7'
p5008
aS'134-32-7'
p5009
aS''
asS'8426'
p5010
(lp5011
S'120-35-4'
p5012
aS''
asS'6416'
p5013
(lp5014
S'75-97-8'
p5015
aS''
asS'9268'
p5016
(lp5017
S'294-62-2'
p5018
aS''
asS'8420'
p5019
(lp5020
S'120-18-3'
p5021
aS''
asS'7129'
p5022
(lp5023
S'93-18-5'
p5024
aS''
asS'6410'
p5025
(lp5026
S'75-91-2'
p5027
aS''
asS'5742'
p5028
(lp5029
S'50-01-1'
p5030
aS''
asS'5743'
p5031
(lp5032
S'50-02-2'
p5033
aS''
asS'5745'
p5034
(lp5035
S'50-04-4'
p5036
aS''
asS'5746'
p5037
(lp5038
S'50-07-7'
p5039
aS''
asS'11301'
p5040
(lp5041
S'1852-53-5'
p5042
aS''
asS'11302'
p5043
(lp5044
S'521-18-6'
p5045
aS''
asS'5587'
p5046
(lp5047
S'91-81-6'
p5048
aS''
asS'6479'
p5049
(lp5050
S'77-48-5'
p5051
aS''
asS'5583'
p5052
(lp5053
S'52128-35-5'
p5054
aS''
asS'878'
p5055
(lp5056
S'74-93-1'
p5057
aS'74-93-1'
p5058
aS'74-93-1'
p5059
aS''
asS'7590'
p5060
(lp5061
S'101-97-3'
p5062
aS''
asS'7758'
p5063
(lp5064
S'105-46-4'
p5065
aS'105-46-4'
p5066
aS''
asS'7903'
p5067
(lp5068
S'108-03-2'
p5069
aS'108-03-2'
p5070
aS'108-03-2'
p5071
aS''
asS'7757'
p5072
(lp5073
S'105-45-3'
p5074
aS''
asS'7751'
p5075
(lp5076
S'105-39-5'
p5077
aS''
asS'5035'
p5078
(lp5079
S'84449-90-1'
p5080
aS''
asS'3939'
p5081
(lp5082
S'1310-65-2'
p5083
aS''
asS'11273'
p5084
(lp5085
S'566-48-3'
p5086
aS''
asS'9904'
p5087
(lp5088
S'434-22-0'
p5089
aS''
asS'4130'
p5090
(lp5091
S'298-00-0'
p5092
aS'298-00-0'
p5093
aS''
asS'7474'
p5094
(lp5095
S'100-00-5'
p5096
aS'100-00-5'
p5097
aS''
asS'4133'
p5098
(lp5099
S'119-36-8'
p5100
aS''
asS'1879'
p5101
(lp5102
S'79647-29-3'
p5103
aS''
asS'3840'
p5104
(lp5105
S'501-30-4'
p5106
aS''
asS'4436'
p5107
(lp5108
S'835-31-4'
p5109
aS''
asS'7854'
p5110
(lp5111
S'107-12-0'
p5112
aS'107-12-0'
p5113
aS'107-12-0'
p5114
aS''
asS'4583'
p5115
(lp5116
S'82419-36-1'
p5117
aS''
asS'178'
p5118
(lp5119
S'60-35-5'
p5120
aS''
asS'8620'
p5121
(lp5122
S'133-49-3'
p5123
aS''
asS'1066'
p5124
(lp5125
S'89-00-9'
p5126
aS'89-00-9'
p5127
aS''
asS'323'
p5128
(lp5129
S'91-64-5'
p5130
aS''
asS'175'
p5131
(lp5132
S'64-19-7'
p5133
aS''
asS'4044'
p5134
(lp5135
S'61-68-7'
p5136
aS''
asS'4046'
p5137
(lp5138
S'53230-10-7'
p5139
aS''
asS'7859'
p5140
(lp5141
S'107-19-7'
p5142
aS'107-19-7'
p5143
aS'107-19-7'
p5144
aS''
asS'4042'
p5145
(lp5146
S'71-58-9'
p5147
aS''
asS'4043'
p5148
(lp5149
S'2668-66-8'
p5150
aS''
asS'6660'
p5151
(lp5152
S'80-71-7'
p5153
aS''
asS'6661'
p5154
(lp5155
S'80-73-9'
p5156
aS''
asS'6666'
p5157
(lp5158
S'1655-29-4'
p5159
aS''
asS'4049'
p5160
(lp5161
S'6284-40-8'
p5162
aS''
asS'5585'
p5163
(lp5164
S'3902-71-4'
p5165
aS''
asS'5960'
p5166
(lp5167
S'56-84-8'
p5168
aS'56-84-8'
p5169
aS''
asS'10870'
p5170
(lp5171
S'538-93-2'
p5172
aS''
asS'6838'
p5173
(lp5174
S'86-30-6'
p5175
aS''
asS'3661'
p5176
(lp5177
S'101-31-5'
p5178
aS'51-55-8'
p5179
aS''
asS'3662'
p5180
(lp5181
S'11079-53-1'
p5182
aS''
asS'2284'
p5183
(lp5184
S'1134-47-0'
p5185
aS''
asS'2286'
p5186
(lp5187
S'1675-54-3'
p5188
aS''
asS'2287'
p5189
(lp5190
S'88899-55-2'
p5191
aS''
asS'4946'
p5192
(lp5193
S'525-66-6'
p5194
aS''
asS'4541'
p5195
(lp5196
S'126924-38-7'
p5197
aS''
asS'4543'
p5198
(lp5199
S'72-69-5'
p5200
aS''
asS'4943'
p5201
(lp5202
S'2078-54-8'
p5203
aS'2078-54-8'
p5204
aS''
asS'11696'
p5205
(lp5206
S'597-09-1'
p5207
aS''
asS'11693'
p5208
(lp5209
S'596-51-0'
p5210
aS''
asS'10907'
p5211
(lp5212
S'540-84-1'
p5213
aS''
asS'10900'
p5214
(lp5215
S'540-59-0'
p5216
aS'540-59-0'
p5217
aS'540-59-0'
p5218
aS''
asS'7918'
p5219
(lp5220
S'108-24-7'
p5221
aS'108-24-7'
p5222
aS'108-24-7'
p5223
aS''
asS'6739'
p5224
(lp5225
S'83-41-0'
p5226
aS''
asS'7913'
p5227
(lp5228
S'108-19-0'
p5229
aS''
asS'7912'
p5230
(lp5231
S'108-18-9'
p5232
aS'108-18-9'
p5233
aS'108-18-9'
p5234
aS''
asS'7910'
p5235
(lp5236
S'108-11-2'
p5237
aS'108-11-2'
p5238
aS'108-11-2'
p5239
aS''
asS'7917'
p5240
(lp5241
S'108-23-6'
p5242
aS''
asS'7915'
p5243
(lp5244
S'108-21-4'
p5245
aS'108-21-4'
p5246
aS'108-21-4'
p5247
aS''
asS'7914'
p5248
(lp5249
S'108-20-3'
p5250
aS'108-20-3'
p5251
aS'108-20-3'
p5252
aS''
asS'977'
p5253
(lp5254
S'7782-44-7'
p5255
aS''
asS'4947'
p5256
(lp5257
S'121-79-9'
p5258
aS''
asS'6288'
p5259
(lp5260
S'72-19-5'
p5261
aS'72-19-5'
p5262
aS''
asS'4940'
p5263
(lp5264
S'362-29-8'
p5265
aS''
asS'971'
p5266
(lp5267
S'144-62-7'
p5268
aS'144-62-7'
p5269
aS'144-62-7'
p5270
aS'144-62-7'
p5271
aS''
asS'4790'
p5272
(lp5273
S'298-02-2'
p5274
aS'298-02-2'
p5275
aS''
asS'6287'
p5276
(lp5277
S'72-18-4'
p5278
aS'72-18-4'
p5279
aS''
asS'7274'
p5280
(lp5281
S'96-05-9'
p5282
aS''
asS'978'
p5283
(lp5284
S'150-13-0'
p5285
aS'150-13-0'
p5286
aS''
asS'6042'
p5287
(lp5288
S'59-43-8'
p5289
aS''
asS'180'
p5290
(lp5291
S'67-64-1'
p5292
aS'67-64-1'
p5293
aS'67-64-1'
p5294
aS''
asS'6047'
p5295
(lp5296
S'59-92-7'
p5297
aS''
asS'6049'
p5298
(lp5299
S'62-33-9'
p5300
aS'139-33-3'
p5301
aS'60-00-4'
p5302
aS'62-33-9'
p5303
aS''
asS'187'
p5304
(lp5305
S'51-84-3'
p5306
aS''
asS'6984'
p5307
(lp5308
S'89-72-5'
p5309
aS'89-72-5'
p5310
aS'89-72-5'
p5311
aS''
asS'2624'
p5312
(lp5313
S'65085-01-0'
p5314
aS''
asS'7351'
p5315
(lp5316
S'97-85-8'
p5317
aS''
asS'6476'
p5318
(lp5319
S'77-41-8'
p5320
aS''
asS'3286'
p5321
(lp5322
S'563-12-2'
p5323
aS'563-12-2'
p5324
aS''
asS'8944'
p5325
(lp5326
S'144-14-9'
p5327
aS''
asS'860'
p5328
(lp5329
S'463-40-1'
p5330
aS''
asS'8083'
p5331
(lp5332
S'110-91-8'
p5333
aS'110-91-8'
p5334
aS'110-91-8'
p5335
aS''
asS'3440'
p5336
(lp5337
S'54-31-9'
p5338
aS''
asS'867'
p5339
(lp5340
S'141-82-2'
p5341
aS'141-82-2'
p5342
aS'141-82-2'
p5343
aS''
asS'2756'
p5344
(lp5345
S'51481-61-9'
p5346
aS''
asS'2754'
p5347
(lp5348
S'73963-72-1'
p5349
aS''
asS'2758'
p5350
(lp5351
S'470-82-6'
p5352
aS'470-82-6'
p5353
aS''
asS'887'
p5354
(lp5355
S'67-56-1'
p5356
aS'67-56-1'
p5357
aS'67-56-1'
p5358
aS''
asS'888'
p5359
(lp5360
S'7439-95-4'
p5361
aS''
asS'8089'
p5362
(lp5363
S'111-01-3'
p5364
aS''
asS'10477'
p5365
(lp5366
S'506-77-4'
p5367
aS'506-77-4'
p5368
aS''
asS'10473'
p5369
(lp5370
S'506-59-2'
p5371
aS''
asS'10472'
p5372
(lp5373
S'506-51-4'
p5374
aS''
asS'5839'
p5375
(lp5376
S'52-39-1'
p5377
aS''
asS'7471'
p5378
(lp5379
S'99-97-8'
p5380
aS''
asS'7505'
p5381
(lp5382
S'100-47-0'
p5383
aS''
asS'7506'
p5384
(lp5385
S'100-48-1'
p5386
aS''
asS'8927'
p5387
(lp5388
S'143-28-2'
p5389
aS''
asS'8925'
p5390
(lp5391
S'143-24-8'
p5392
aS''
asS'8924'
p5393
(lp5394
S'143-23-7'
p5395
aS''
asS'7500'
p5396
(lp5397
S'100-41-4'
p5398
aS'100-41-4'
p5399
aS'100-41-4'
p5400
aS'100-41-4'
p5401
aS''
asS'8929'
p5402
(lp5403
S'143-33-9'
p5404
aS'143-33-9'
p5405
aS'143-33-9'
p5406
aS''
asS'8928'
p5407
(lp5408
S'143-29-3'
p5409
aS''
asS'777'
p5410
(lp5411
S'73-67-6'
p5412
aS''
asS'8892'
p5413
(lp5414
S'142-62-1'
p5415
aS''
asS'7502'
p5416
(lp5417
S'100-43-6'
p5418
aS''
asS'772'
p5419
(lp5420
S'9005-49-6'
p5421
aS'9005-49-6'
p5422
aS''
asS'7503'
p5423
(lp5424
S'100-44-7'
p5425
aS'100-44-7'
p5426
aS'100-44-7'
p5427
aS''
asS'3384'
p5428
(lp5429
S'426-13-1'
p5430
aS''
asS'11976'
p5431
(lp5432
S'615-05-4'
p5433
aS'615-05-4'
p5434
aS''
asS'7102'
p5435
(lp5436
S'92-67-1'
p5437
aS'92-67-1'
p5438
aS''
asS'7103'
p5439
(lp5440
S'92-69-3'
p5441
aS''
asS'7076'
p5442
(lp5443
S'92-06-8'
p5444
aS''
asS'72'
p5445
(lp5446
S'99-50-3'
p5447
aS''
asS'3059'
p5448
(lp5449
S'22494-42-4'
p5450
aS''
asS'2972'
p5451
(lp5452
S'30652-11-0'
p5453
aS''
asS'2973'
p5454
(lp5455
S'70-51-9'
p5456
aS''
asS'3054'
p5457
(lp5458
S'56-53-1'
p5459
aS''
asS'3055'
p5460
(lp5461
S'972-02-1'
p5462
aS''
asS'3052'
p5463
(lp5464
S'90-89-1'
p5465
aS''
asS'3053'
p5466
(lp5467
S'67-43-6'
p5468
aS''
asS'3050'
p5469
(lp5470
S'3762-25-2'
p5471
aS''
asS'5363'
p5472
(lp5473
S'72741-87-8'
p5474
aS''
asS'5361'
p5475
(lp5476
S'145-63-1'
p5477
aS''
asS'1046'
p5478
(lp5479
S'98-96-4'
p5480
aS''
asS'1045'
p5481
(lp5482
S'110-60-1'
p5483
aS'110-60-1'
p5484
aS''
asS'1049'
p5485
(lp5486
S'110-86-1'
p5487
aS'110-86-1'
p5488
aS'110-86-1'
p5489
aS''
asS'1048'
p5490
(lp5491
S'288-13-1'
p5492
aS''
asS'7352'
p5493
(lp5494
S'97-86-9'
p5495
aS''
asS'1684'
p5496
(lp5497
S'153168-05-9'
p5498
aS''
asS'7355'
p5499
(lp5500
S'97-90-5'
p5501
aS''
asS'7281'
p5502
(lp5503
S'96-13-9'
p5504
aS''
asS'7354'
p5505
(lp5506
S'9011-15-8'
p5507
aS'97-88-1'
p5508
aS''
asS'8255'
p5509
(lp5510
S'115-11-7'
p5511
aS''
asS'8254'
p5512
(lp5513
S'115-10-6'
p5514
aS''
asS'9584'
p5515
(lp5516
S'348-54-9'
p5517
aS''
asS'8252'
p5518
(lp5519
S'115-07-1'
p5520
aS'115-07-1'
p5521
aS''
asS'8258'
p5522
(lp5523
S'115-19-5'
p5524
aS''
asS'8783'
p5525
(lp5526
S'140-08-9'
p5527
aS''
asS'8780'
p5528
(lp5529
S'140-03-4'
p5530
aS''
asS'3285'
p5531
(lp5532
S'57-63-6'
p5533
aS''
asS'8785'
p5534
(lp5535
S'140-11-4'
p5536
aS'140-11-4'
p5537
aS''
asS'3284'
p5538
(lp5539
S'126-52-3'
p5540
aS''
asS'7618'
p5541
(lp5542
S'102-71-6'
p5543
aS'102-71-6'
p5544
aS''
asS'7619'
p5545
(lp5546
S'102-77-2'
p5547
aS''
asS'5106'
p5548
(lp5549
S'80214-83-1'
p5550
aS''
asS'3120'
p5551
(lp5552
S'330-54-1'
p5553
aS'330-54-1'
p5554
aS'330-54-1'
p5555
aS''
asS'3121'
p5556
(lp5557
S'99-66-1'
p5558
aS''
asS'7611'
p5559
(lp5560
S'102-54-5'
p5561
aS'102-54-5'
p5562
aS''
asS'7612'
p5563
(lp5564
S'542-92-7'
p5565
aS'542-92-7'
p5566
aS'542-92-7'
p5567
aS''
asS'5029'
p5568
(lp5569
S'117976-89-3'
p5570
aS''
asS'7504'
p5571
(lp5572
S'100-46-9'
p5573
aS'100-46-9'
p5574
aS''
asS'5105'
p5575
(lp5576
S'78628-28-1'
p5577
aS''
asS'8657'
p5578
(lp5579
S'25340-17-4'
p5580
aS''
asS'1317'
p5581
(lp5582
S'646-25-3'
p5583
aS''
asS'8430'
p5584
(lp5585
S'120-40-1'
p5586
aS''
asS'8433'
p5587
(lp5588
S'120-46-7'
p5589
aS''
asS'5152'
p5590
(lp5591
S'89365-50-4'
p5592
aS''
asS'8437'
p5593
(lp5594
S'120-55-8'
p5595
aS''
asS'8438'
p5596
(lp5597
S'120-57-0'
p5598
aS''
asS'2833'
p5599
(lp5600
S'64-86-8'
p5601
aS''
asS'9317'
p5602
(lp5603
S'301-04-2'
p5604
aS''
asS'1318'
p5605
(lp5606
S'66-71-7'
p5607
aS'66-71-7'
p5608
aS''
asS'6446'
p5609
(lp5610
S'76-43-7'
p5611
aS''
asS'6917'
p5612
(lp5613
S'88-12-0'
p5614
aS'9003-39-8'
p5615
aS'88-12-0'
p5616
aS''
asS'5756'
p5617
(lp5618
S'50-27-1'
p5619
aS''
asS'4236'
p5620
(lp5621
S'68693-11-8'
p5622
aS''
asS'4235'
p5623
(lp5624
S'71320-77-9'
p5625
aS''
asS'6448'
p5626
(lp5627
S'125-12-2'
p5628
aS''
asS'3448'
p5629
(lp5630
S'64603-91-4'
p5631
aS''
asS'5591'
p5632
(lp5633
S'97322-87-7'
p5634
aS''
asS'8865'
p5635
(lp5636
S'141-95-7'
p5637
aS''
asS'5593'
p5638
(lp5639
S'1508-75-4'
p5640
aS''
asS'8078'
p5641
(lp5642
S'110-82-7'
p5643
aS'110-82-7'
p5644
aS'110-82-7'
p5645
aS'110-82-7'
p5646
aS''
asS'5596'
p5647
(lp5648
S'10405-02-4'
p5649
aS''
asS'6339'
p5650
(lp5651
S'75-02-5'
p5652
aS'75-02-5'
p5653
aS'75-02-5'
p5654
aS''
asS'7729'
p5655
(lp5656
S'104-91-6'
p5657
aS''
asS'7720'
p5658
(lp5659
S'104-76-7'
p5660
aS''
asS'7724'
p5661
(lp5662
S'104-85-8'
p5663
aS''
asS'7725'
p5664
(lp5665
S'104-87-0'
p5666
aS''
asS'7726'
p5667
(lp5668
S'104-88-1'
p5669
aS''
asS'3948'
p5670
(lp5671
S'98079-51-7'
p5672
aS''
asS'3446'
p5673
(lp5674
S'60142-96-3'
p5675
aS''
asS'313'
p5676
(lp5677
S'7647-01-0'
p5678
aS'7647-01-0'
p5679
aS'7647-01-0'
p5680
aS''
asS'311'
p5681
(lp5682
S'77-92-9'
p5683
aS'77-92-9'
p5684
aS''
asS'317'
p5685
(lp5686
S'85-61-0'
p5687
aS''
asS'864'
p5688
(lp5689
S'62-46-4'
p5690
aS''
asS'11203'
p5691
(lp5692
S'557-98-2'
p5693
aS''
asS'11205'
p5694
(lp5695
S'558-13-4'
p5696
aS'558-13-4'
p5697
aS''
asS'11208'
p5698
(lp5699
S'558-30-5'
p5700
aS''
asS'6082'
p5701
(lp5702
S'390-28-3'
p5703
aS''
asS'4121'
p5704
(lp5705
S'135-07-9'
p5706
aS''
asS'7430'
p5707
(lp5708
S'99-30-9'
p5709
aS''
asS'7439'
p5710
(lp5711
S'6485-40-1'
p5712
aS'8008-79-5'
p5713
aS''
asS'4367'
p5714
(lp5715
S'2149-70-4'
p5716
aS''
asS'10712'
p5717
(lp5718
S'16462-44-5'
p5719
aS''
asS'4495'
p5720
(lp5721
S'51803-78-2'
p5722
aS''
asS'6675'
p5723
(lp5724
S'81-24-3'
p5725
aS''
asS'6676'
p5726
(lp5727
S'81-25-4'
p5728
aS''
asS'6670'
p5729
(lp5730
S'81-16-3'
p5731
aS''
asS'444'
p5732
(lp5733
S'34841-39-9'
p5734
aS''
asS'4057'
p5735
(lp5736
S'25990-43-6'
p5737
aS''
asS'4055'
p5738
(lp5739
S'58-27-5'
p5740
aS''
asS'4054'
p5741
(lp5742
S'19982-08-2'
p5743
aS''
asS'4058'
p5744
(lp5745
S'57-42-1'
p5746
aS''
asS'10491'
p5747
(lp5748
S'507-63-1'
p5749
aS''
asS'5970'
p5750
(lp5751
S'461-06-3'
p5752
aS''
asS'5976'
p5753
(lp5754
S'57-14-7'
p5755
aS'57-14-7'
p5756
aS''
asS'5974'
p5757
(lp5758
S'57-09-0'
p5759
aS'57-09-0'
p5760
aS''
asS'7070'
p5761
(lp5762
S'91-94-1'
p5763
aS'91-94-1'
p5764
aS''
asS'4493'
p5765
(lp5766
S'63612-50-0'
p5767
aS''
asS'6934'
p5768
(lp5769
S'88-44-8'
p5770
aS''
asS'10617'
p5771
(lp5772
S'519-95-9'
p5773
aS''
asS'8128'
p5774
(lp5775
S'111-69-3'
p5776
aS'68411-90-5'
p5777
aS'111-69-3'
p5778
aS'111-69-3'
p5779
aS''
asS'2294'
p5780
(lp5781
S'57-44-3'
p5782
aS''
asS'8697'
p5783
(lp5784
S'149-57-5'
p5785
aS'149-57-5'
p5786
aS''
asS'8696'
p5787
(lp5788
S'136-52-7'
p5789
aS''
asS'288'
p5790
(lp5791
S'461-06-3'
p5792
aS''
asS'2561'
p5793
(lp5794
S'5697-56-3'
p5795
aS''
asS'5196'
p5796
(lp5797
S'563-41-7'
p5798
aS''
asS'2567'
p5799
(lp5800
S'41575-94-4'
p5801
aS''
asS'2566'
p5802
(lp5803
S'1563-66-2'
p5804
aS'1563-66-2'
p5805
aS'1563-66-2'
p5806
aS''
asS'10917'
p5807
(lp5808
S'541-15-1'
p5809
aS''
asS'10914'
p5810
(lp5811
S'541-05-9'
p5812
aS''
asS'10913'
p5813
(lp5814
S'541-02-6'
p5815
aS''
asS'2369'
p5816
(lp5817
S'63659-18-7'
p5818
aS''
asS'2368'
p5819
(lp5820
S'55-73-2'
p5821
aS''
asS'2365'
p5822
(lp5823
S'57-57-8'
p5824
aS'57-57-8'
p5825
aS''
asS'7293'
p5826
(lp5827
S'96-31-1'
p5828
aS''
asS'7294'
p5829
(lp5830
S'96-33-3'
p5831
aS'96-33-3'
p5832
aS'96-33-3'
p5833
aS''
asS'7298'
p5834
(lp5835
S'96-41-3'
p5836
aS''
asS'5905'
p5837
(lp5838
S'54-42-2'
p5839
aS''
asS'6509'
p5840
(lp5841
S'77-98-5'
p5842
aS''
asS'4440'
p5843
(lp5844
S'121679-13-8'
p5845
aS''
asS'281'
p5846
(lp5847
S'630-08-0'
p5848
aS'630-08-0'
p5849
aS'630-08-0'
p5850
aS''
asS'280'
p5851
(lp5852
S'124-38-9'
p5853
aS'124-38-9'
p5854
aS'124-38-9'
p5855
aS''
asS'3724'
p5856
(lp5857
S'92339-11-2'
p5858
aS''
asS'4449'
p5859
(lp5860
S'83366-66-9'
p5861
aS''
asS'3723'
p5862
(lp5863
S'440-58-4'
p5864
aS''
asS'964'
p5865
(lp5866
S'1113-60-6'
p5867
aS''
asS'965'
p5868
(lp5869
S'68412-07-7'
p5870
aS''
asS'967'
p5871
(lp5872
S'65-86-1'
p5873
aS''
asS'4934'
p5874
(lp5875
S'298-50-0'
p5876
aS''
asS'4935'
p5877
(lp5878
S'499-67-2'
p5879
aS''
asS'962'
p5880
(lp5881
S'7732-18-5'
p5882
aS''
asS'4939'
p5883
(lp5884
S'36015-30-2'
p5885
aS''
asS'5578'
p5886
(lp5887
S'738-70-5'
p5888
aS''
asS'4688'
p5889
(lp5890
S'555-57-7'
p5891
aS''
asS'284'
p5892
(lp5893
S'64-18-6'
p5894
aS'64-18-6'
p5895
aS'64-18-6'
p5896
aS'64-18-6'
p5897
aS''
asS'11734'
p5898
(lp5899
S'598-78-7'
p5900
aS''
asS'286'
p5901
(lp5902
S'2921-14-4'
p5903
aS''
asS'6053'
p5904
(lp5905
S'60-11-7'
p5906
aS'60-11-7'
p5907
aS''
asS'10340'
p5908
(lp5909
S'497-19-8'
p5910
aS''
asS'10005'
p5911
(lp5912
S'461-58-5'
p5913
aS''
asS'10007'
p5914
(lp5915
S'461-78-9'
p5916
aS''
asS'5210'
p5917
(lp5918
S'106650-56-0'
p5919
aS''
asS'9086'
p5920
(lp5921
S'156-87-6'
p5922
aS''
asS'9229'
p5923
(lp5924
S'274-09-9'
p5925
aS''
asS'9051'
p5926
(lp5927
S'152-62-5'
p5928
aS''
asS'3438'
p5929
(lp5930
S'617-89-0'
p5931
aS''
asS'3092'
p5932
(lp5933
S'148-01-6'
p5934
aS'148-01-6'
p5935
aS''
asS'9053'
p5936
(lp5937
S'152-97-6'
p5938
aS''
asS'5192'
p5939
(lp5940
S'111-20-6'
p5941
aS''
asS'5391'
p5942
(lp5943
S'846-50-4'
p5944
aS''
asS'3430'
p5945
(lp5946
S'23110-15-8'
p5947
aS''
asS'874'
p5948
(lp5949
S'498-23-7'
p5950
aS''
asS'875'
p5951
(lp5952
S'133-37-9'
p5953
aS''
asS'3435'
p5954
(lp5955
S'67-45-8'
p5956
aS''
asS'870'
p5957
(lp5958
S'34612-38-9'
p5959
aS'38819-01-1'
p5960
aS''
asS'4848'
p5961
(lp5962
S'28797-61-7'
p5963
aS''
asS'4594'
p5964
(lp5965
S'73590-58-6'
p5966
aS'161796-78-7'
p5967
aS''
asS'4595'
p5968
(lp5969
S'99614-02-5'
p5970
aS''
asS'10481'
p5971
(lp5972
S'506-93-4'
p5973
aS''
asS'10486'
p5974
(lp5975
S'507-20-0'
p5976
aS''
asS'3397'
p5977
(lp5978
S'13311-84-7'
p5979
aS''
asS'10467'
p5980
(lp5981
S'506-30-9'
p5982
aS''
asS'10465'
p5983
(lp5984
S'506-12-7'
p5985
aS'67701-03-5'
p5986
aS'68424-37-3'
p5987
aS''
asS'10461'
p5988
(lp5989
S'505-60-2'
p5990
aS''
asS'9046'
p5991
(lp5992
S'152-43-2'
p5993
aS''
asS'263'
p5994
(lp5995
S'71-36-3'
p5996
aS'71-36-3'
p5997
aS'71-36-3'
p5998
aS'71-36-3'
p5999
aS''
asS'7244'
p6000
(lp6001
S'95-56-7'
p6002
aS''
asS'126'
p6003
(lp6004
S'123-08-0'
p6005
aS''
asS'3278'
p6006
(lp6007
S'58-54-8'
p6008
aS''
asS'6388'
p6009
(lp6010
S'75-68-3'
p6011
aS''
asS'8917'
p6012
(lp6013
S'143-10-2'
p6014
aS'143-10-2'
p6015
aS''
asS'11848'
p6016
(lp6017
S'26099-09-2'
p6018
aS''
asS'11846'
p6019
(lp6020
S'608-31-1'
p6021
aS''
asS'11192'
p6022
(lp6023
S'557-34-6'
p6024
aS''
asS'11199'
p6025
(lp6026
S'9002-89-5'
p6027
aS''
asS'760'
p6028
(lp6029
S'298-12-4'
p6030
aS'298-12-4'
p6031
aS''
asS'761'
p6032
(lp6033
S'85-32-5'
p6034
aS''
asS'2969'
p6035
(lp6036
S'334-48-5'
p6037
aS'334-48-5'
p6038
aS''
asS'2968'
p6039
(lp6040
S'156-74-1'
p6041
aS''
asS'764'
p6042
(lp6043
S'73-40-5'
p6044
aS''
asS'7112'
p6045
(lp6046
S'92-88-6'
p6047
aS''
asS'7115'
p6048
(lp6049
S'92-94-4'
p6050
aS''
asS'7114'
p6051
(lp6052
S'92-93-3'
p6053
aS'92-93-3'
p6054
aS''
asS'7119'
p6055
(lp6056
S'93-04-9'
p6057
aS''
asS'6874'
p6058
(lp6059
S'87-20-7'
p6060
aS''
asS'338'
p6061
(lp6062
S'69-72-7'
p6063
aS'69-72-7'
p6064
aS''
asS'5379'
p6065
(lp6066
S'112811-59-3'
p6067
aS''
asS'8926'
p6068
(lp6069
S'143-27-1'
p6070
aS''
asS'1072'
p6071
(lp6072
S'83-88-5'
p6073
aS''
asS'7290'
p6074
(lp6075
S'96-24-2'
p6076
aS''
asS'7390'
p6077
(lp6078
S'98-51-1'
p6079
aS'98-51-1'
p6080
aS''
asS'8923'
p6081
(lp6082
S'143-22-6'
p6083
aS''
asS'1676'
p6084
(lp6085
S'41078-02-8'
p6086
aS''
asS'1677'
p6087
(lp6088
S'13331-27-6'
p6089
aS''
asS'5394'
p6090
(lp6091
S'85622-93-1'
p6092
aS''
asS'1672'
p6093
(lp6094
S'5332-73-0'
p6095
aS''
asS'8221'
p6096
(lp6097
S'112-92-5'
p6098
aS''
asS'8223'
p6099
(lp6100
S'113-15-5'
p6101
aS''
asS'679'
p6102
(lp6103
S'67-68-5'
p6104
aS'67-68-5'
p6105
aS''
asS'8226'
p6106
(lp6107
S'113-42-8'
p6108
aS''
asS'674'
p6109
(lp6110
S'124-40-3'
p6111
aS'124-40-3'
p6112
aS'124-40-3'
p6113
aS''
asS'675'
p6114
(lp6115
S'582-60-5'
p6116
aS''
asS'670'
p6117
(lp6118
S'96-26-4'
p6119
aS''
asS'7291'
p6120
(lp6121
S'96-27-5'
p6122
aS''
asS'673'
p6123
(lp6124
S'1118-68-9'
p6125
aS''
asS'3132'
p6126
(lp6127
S'76721-89-6'
p6128
aS''
asS'10026'
p6129
(lp6130
S'110-46-3'
p6131
aS''
asS'7608'
p6132
(lp6133
S'102-45-4'
p6134
aS''
asS'7924'
p6135
(lp6136
S'108-32-7'
p6137
aS''
asS'7292'
p6138
(lp6139
S'96-29-7'
p6140
aS''
asS'7601'
p6141
(lp6142
S'102-20-5'
p6143
aS''
asS'5789'
p6144
(lp6145
S'3424-98-4'
p6146
aS'50-89-5'
p6147
aS''
asS'6393'
p6148
(lp6149
S'75-73-0'
p6150
aS''
asS'6923'
p6151
(lp6152
S'88-18-6'
p6153
aS''
asS'4641'
p6154
(lp6155
S'129-20-4'
p6156
aS''
asS'4107'
p6157
(lp6158
S'532-03-6'
p6159
aS''
asS'2350'
p6160
(lp6161
S'125602-71-3'
p6162
aS''
asS'10024'
p6163
(lp6164
S'462-95-3'
p6165
aS''
asS'6395'
p6166
(lp6167
S'75-75-2'
p6168
aS''
asS'8130'
p6169
(lp6170
S'111-71-7'
p6171
aS''
asS'6909'
p6172
(lp6173
S'87-90-1'
p6174
aS''
asS'4205'
p6175
(lp6176
S'61337-67-5'
p6177
aS''
asS'5568'
p6178
(lp6179
S'146-54-3'
p6180
aS''
asS'3118'
p6181
(lp6182
S'298-04-4'
p6183
aS'298-04-4'
p6184
aS''
asS'5564'
p6185
(lp6186
S'3380-34-5'
p6187
aS''
asS'5565'
p6188
(lp6189
S'112-24-3'
p6190
aS''
asS'5566'
p6191
(lp6192
S'117-89-5'
p6193
aS''
asS'5560'
p6194
(lp6195
S'133-67-5'
p6196
aS''
asS'1254'
p6197
(lp6198
S'1490-04-6'
p6199
aS''
asS'1253'
p6200
(lp6201
S'102518-79-6'
p6202
aS''
asS'7732'
p6203
(lp6204
S'104-94-9'
p6205
aS'104-94-9'
p6206
aS''
asS'7730'
p6207
(lp6208
S'104-92-7'
p6209
aS''
asS'7737'
p6210
(lp6211
S'105-11-3'
p6212
aS''
asS'7735'
p6213
(lp6214
S'105-08-8'
p6215
aS''
asS'7734'
p6216
(lp6217
S'105-05-5'
p6218
aS''
asS'3958'
p6219
(lp6220
S'846-49-1'
p6221
aS''
asS'7295'
p6222
(lp6223
S'96-34-4'
p6224
aS''
asS'300'
p6225
(lp6226
S'79-11-8'
p6227
aS''
asS'303'
p6228
(lp6229
S'81-25-4'
p6230
aS''
asS'3957'
p6231
(lp6232
S'79794-75-5'
p6233
aS''
asS'305'
p6234
(lp6235
S'62-49-7'
p6236
aS''
asS'3955'
p6237
(lp6238
S'53179-11-6'
p6239
aS''
asS'4116'
p6240
(lp6241
S'76-38-0'
p6242
aS'76-38-0'
p6243
aS'76-38-0'
p6244
aS''
asS'9305'
p6245
(lp6246
S'300-39-0'
p6247
aS''
asS'6432'
p6248
(lp6249
S'76-19-7'
p6250
aS'76-19-7'
p6251
aS''
asS'7895'
p6252
(lp6253
S'107-87-9'
p6254
aS'107-87-9'
p6255
aS'107-87-9'
p6256
aS''
asS'7296'
p6257
(lp6258
S'96-37-7'
p6259
aS''
asS'8194'
p6260
(lp6261
S'112-54-9'
p6262
aS''
asS'7668'
p6263
(lp6264
S'103-65-1'
p6265
aS''
asS'3295'
p6266
(lp6267
S'452-35-7'
p6268
aS''
asS'8195'
p6269
(lp6270
S'112-55-0'
p6271
aS'112-55-0'
p6272
aS'112-55-0'
p6273
aS''
asS'7620'
p6274
(lp6275
S'102-79-4'
p6276
aS''
asS'7422'
p6277
(lp6278
S'99-08-1'
p6279
aS'99-08-1'
p6280
aS''
asS'8134'
p6281
(lp6282
S'111-77-3'
p6283
aS''
asS'6868'
p6284
(lp6285
S'87-02-5'
p6286
aS''
asS'5327'
p6287
(lp6288
S'57-68-1'
p6289
aS''
asS'6869'
p6290
(lp6291
S'87-08-1'
p6292
aS''
asS'7107'
p6293
(lp6294
S'11138-66-2'
p6295
aS''
asS'2475'
p6296
(lp6297
S'23284-25-5'
p6298
aS''
asS'7108'
p6299
(lp6300
S'92-84-2'
p6301
aS'92-84-2'
p6302
aS'92-84-2'
p6303
aS''
asS'7969'
p6304
(lp6305
S'108-98-5'
p6306
aS'108-98-5'
p6307
aS'108-98-5'
p6308
aS''
asS'6606'
p6309
(lp6310
S'79-63-0'
p6311
aS''
asS'7450'
p6312
(lp6313
S'99-62-7'
p6314
aS''
asS'4062'
p6315
(lp6316
S'96-88-8'
p6317
aS''
asS'10326'
p6318
(lp6319
S'496-11-7'
p6320
aS''
asS'9300'
p6321
(lp6322
S'299-86-5'
p6323
aS'299-86-5'
p6324
aS''
asS'3899'
p6325
(lp6326
S'75706-12-6'
p6327
aS''
asS'5780'
p6328
(lp6329
S'50-70-4'
p6330
aS'50-70-4'
p6331
aS''
asS'79'
p6332
(lp6333
S'100-54-9'
p6334
aS''
asS'4890'
p6335
(lp6336
S'2955-38-6'
p6337
aS''
asS'3607'
p6338
(lp6339
S'141-94-6'
p6340
aS''
asS'3606'
p6341
(lp6342
S'84-16-2'
p6343
aS''
asS'3604'
p6344
(lp6345
S'60-26-4'
p6346
aS''
asS'3608'
p6347
(lp6348
S'56-29-1'
p6349
aS''
asS'7418'
p6350
(lp6351
S'99-04-7'
p6352
aS''
asS'7419'
p6353
(lp6354
S'87980-11-8'
p6355
aS''
asS'896'
p6356
(lp6357
S'73-31-4'
p6358
aS''
asS'6115'
p6359
(lp6360
S'62-53-3'
p6361
aS'62-53-3'
p6362
aS'62-53-3'
p6363
aS'62-53-3'
p6364
aS''
asS'6116'
p6365
(lp6366
S'62-54-4'
p6367
aS'62-54-4'
p6368
aS''
asS'9171'
p6369
(lp6370
S'218-01-9'
p6371
aS''
asS'6112'
p6372
(lp6373
S'62-46-4'
p6374
aS''
asS'10927'
p6375
(lp6376
S'541-35-5'
p6377
aS''
asS'4944'
p6378
(lp6379
S'114-26-1'
p6380
aS'114-26-1'
p6381
aS''
asS'7283'
p6382
(lp6383
S'96-15-1'
p6384
aS''
asS'7282'
p6385
(lp6386
S'96-14-0'
p6387
aS'96-14-0'
p6388
aS''
asS'7975'
p6389
(lp6390
S'109-06-8'
p6391
aS''
asS'4456'
p6392
(lp6393
S'59-99-4'
p6394
aS''
asS'3739'
p6395
(lp6396
S'606-17-7'
p6397
aS''
asS'3735'
p6398
(lp6399
S'96-83-3'
p6400
aS''
asS'4458'
p6401
(lp6402
S'106-25-2'
p6403
aS''
asS'7977'
p6404
(lp6405
S'109-09-1'
p6406
aS''
asS'8343'
p6407
(lp6408
S'117-81-7'
p6409
aS'117-81-7'
p6410
aS'117-81-7'
p6411
aS''
asS'3730'
p6412
(lp6413
S'66108-95-0'
p6414
aS''
asS'4923'
p6415
(lp6416
S'500-92-5'
p6417
aS''
asS'4927'
p6418
(lp6419
S'60-87-7'
p6420
aS''
asS'4926'
p6421
(lp6422
S'58-40-2'
p6423
aS''
asS'955'
p6424
(lp6425
S'27415-09-4'
p6426
aS''
asS'957'
p6427
(lp6428
S'111-87-5'
p6429
aS'68603-15-6'
p6430
aS''
asS'7970'
p6431
(lp6432
S'108-99-6'
p6433
aS'108-99-6'
p6434
aS''
asS'11726'
p6435
(lp6436
S'598-62-9'
p6437
aS''
asS'11727'
p6438
(lp6439
S'598-63-0'
p6440
aS''
asS'11722'
p6441
(lp6442
S'598-55-0'
p6443
aS''
asS'11723'
p6444
(lp6445
S'598-56-1'
p6446
aS''
asS'6021'
p6447
(lp6448
S'58-63-9'
p6449
aS''
asS'7972'
p6450
(lp6451
S'109-02-4'
p6452
aS''
asS'6024'
p6453
(lp6454
S'153-61-7'
p6455
aS''
asS'2642'
p6456
(lp6457
S'70797-11-4'
p6458
aS''
asS'2787'
p6459
(lp6460
S'30299-08-2'
p6461
aS''
asS'2646'
p6462
(lp6463
S'92665-29-7'
p6464
aS''
asS'6318'
p6465
(lp6466
S'74-11-3'
p6467
aS''
asS'2749'
p6468
(lp6469
S'29342-05-0'
p6470
aS''
asS'6613'
p6471
(lp6472
S'79-83-4'
p6473
aS''
asS'5760'
p6474
(lp6475
S'50-36-2'
p6476
aS''
asS'3420'
p6477
(lp6478
S'98048-97-6'
p6479
aS''
asS'6334'
p6480
(lp6481
S'68476-49-3'
p6482
aS'68920-07-0'
p6483
aS'69430-33-7'
p6484
aS'74-98-6'
p6485
aS'74-98-6'
p6486
aS'74-98-6'
p6487
aS''
asS'6335'
p6488
(lp6489
S'74-99-7'
p6490
aS'74-99-7'
p6491
aS'74-99-7'
p6492
aS''
asS'6337'
p6493
(lp6494
S'68411-72-3'
p6495
aS'75-00-3'
p6496
aS'75-00-3'
p6497
aS'75-00-3'
p6498
aS''
asS'10707'
p6499
(lp6500
S'528-29-0'
p6501
aS'528-29-0'
p6502
aS''
asS'6333'
p6503
(lp6504
S'74-97-5'
p6505
aS'74-97-5'
p6506
aS'74-97-5'
p6507
aS''
asS'4584'
p6508
(lp6509
S'78111-17-8'
p6510
aS''
asS'6338'
p6511
(lp6512
S'75-01-4'
p6513
aS'9002-86-2'
p6514
aS'75-01-4'
p6515
aS'75-01-4'
p6516
aS''
asS'9071'
p6517
(lp6518
S'155-04-4'
p6519
aS''
asS'10457'
p6520
(lp6521
S'505-48-6'
p6522
aS''
asS'10101'
p6523
(lp6524
S'469-79-4'
p6525
aS''
asS'8158'
p6526
(lp6527
S'112-05-0'
p6528
aS'67762-36-1'
p6529
aS'68937-75-7'
p6530
aS''
asS'10100'
p6531
(lp6532
S'469-62-5'
p6533
aS''
asS'3559'
p6534
(lp6535
S'52-86-8'
p6536
aS''
asS'5910'
p6537
(lp6538
S'54-71-7'
p6539
aS''
asS'8907'
p6540
(lp6541
S'142-91-6'
p6542
aS''
asS'11855'
p6543
(lp6544
S'608-93-5'
p6545
aS''
asS'11185'
p6546
(lp6547
S'557-20-0'
p6548
aS''
asS'9237'
p6549
(lp6550
S'280-57-9'
p6551
aS''
asS'713'
p6552
(lp6553
S'75-12-7'
p6554
aS'75-12-7'
p6555
aS'75-12-7'
p6556
aS''
asS'712'
p6557
(lp6558
S'50-00-0'
p6559
aS'30525-89-4'
p6560
aS'50-00-0'
p6561
aS'50-00-0'
p6562
aS'50-00-0'
p6563
aS''
asS'7284'
p6564
(lp6565
S'96-17-3'
p6566
aS''
asS'6849'
p6567
(lp6568
S'86-57-7'
p6569
aS''
asS'6057'
p6570
(lp6571
S'60-18-4'
p6572
aS'556-02-5'
p6573
aS''
asS'7127'
p6574
(lp6575
S'93-15-2'
p6576
aS''
asS'7124'
p6577
(lp6578
S'93-10-7'
p6579
aS''
asS'8623'
p6580
(lp6581
S'133-59-5'
p6582
aS''
asS'7122'
p6583
(lp6584
S'93-08-3'
p6585
aS''
asS'5413'
p6586
(lp6587
S'66-40-0'
p6588
aS''
asS'4078'
p6589
(lp6590
S'5588-33-0'
p6591
aS''
asS'1068'
p6592
(lp6593
S'75-18-3'
p6594
aS''
asS'6306'
p6595
(lp6596
S'73-32-5'
p6597
aS''
asS'5957'
p6598
(lp6599
S'56-65-5'
p6600
aS''
asS'1060'
p6601
(lp6602
S'127-17-3'
p6603
aS''
asS'5956'
p6604
(lp6605
S'56-59-7'
p6606
aS''
asS'5304'
p6607
(lp6608
S'57-24-9'
p6609
aS'57-24-9'
p6610
aS''
asS'7879'
p6611
(lp6612
S'107-64-2'
p6613
aS''
asS'4075'
p6614
(lp6615
S'89-57-6'
p6616
aS''
asS'7955'
p6617
(lp6618
S'108-78-1'
p6619
aS''
asS'6590'
p6620
(lp6621
S'79-31-2'
p6622
aS'79-31-2'
p6623
aS''
asS'6591'
p6624
(lp6625
S'79-34-5'
p6626
aS'79-34-5'
p6627
aS'79-34-5'
p6628
aS''
asS'6593'
p6629
(lp6630
S'79-36-7'
p6631
aS''
asS'6594'
p6632
(lp6633
S'79-38-9'
p6634
aS''
asS'6595'
p6635
(lp6636
S'79-39-0'
p6637
aS''
asS'6597'
p6638
(lp6639
S'79-43-6'
p6640
aS'79-43-6'
p6641
aS''
asS'6598'
p6642
(lp6643
S'79-44-7'
p6644
aS'79-44-7'
p6645
aS''
asS'7789'
p6646
(lp6647
S'106-14-9'
p6648
aS'27924-99-8'
p6649
aS''
asS'3140'
p6650
(lp6651
S'2379-57-9'
p6652
aS''
asS'2828'
p6653
(lp6654
S'76-57-3'
p6655
aS''
asS'3148'
p6656
(lp6657
S'115956-12-2'
p6658
aS''
asS'2826'
p6659
(lp6660
S'50-36-2'
p6661
aS''
asS'3386'
p6662
(lp6663
S'54910-89-3'
p6664
aS''
asS'7638'
p6665
(lp6666
S'103-16-2'
p6667
aS''
asS'3385'
p6668
(lp6669
S'51-21-8'
p6670
aS''
asS'3380'
p6671
(lp6672
S'1622-62-4'
p6673
aS''
asS'7636'
p6674
(lp6675
S'103-11-7'
p6676
aS''
asS'5993'
p6677
(lp6678
S'57-74-9'
p6679
aS'57-74-9'
p6680
aS''
asS'7635'
p6681
(lp6682
S'103-09-3'
p6683
aS''
asS'449'
p6684
(lp6685
S'150-97-0'
p6686
aS''
asS'4211'
p6687
(lp6688
S'53-19-0'
p6689
aS''
asS'4212'
p6690
(lp6691
S'65271-80-9'
p6692
aS''
asS'5790'
p6693
(lp6694
S'50-91-9'
p6695
aS''
asS'7952'
p6696
(lp6697
S'108-74-7'
p6698
aS''
asS'6937'
p6699
(lp6700
S'88-60-8'
p6701
aS''
asS'9845'
p6702
(lp6703
S'407-25-0'
p6704
aS''
asS'9844'
p6705
(lp6706
S'406-90-6'
p6707
aS'406-90-6'
p6708
aS''
asS'5771'
p6709
(lp6710
S'50-56-6'
p6711
aS''
asS'5770'
p6712
(lp6713
S'50-55-5'
p6714
aS'50-55-5'
p6715
aS''
asS'5775'
p6716
(lp6717
S'50-60-2'
p6718
aS''
asS'8690'
p6719
(lp6720
S'136-36-7'
p6721
aS''
asS'8121'
p6722
(lp6723
S'111-55-7'
p6724
aS''
asS'7705'
p6725
(lp6726
S'104-51-8'
p6727
aS''
asS'4201'
p6728
(lp6729
S'38304-91-5'
p6730
aS''
asS'7703'
p6731
(lp6732
S'104-46-1'
p6733
aS''
asS'7701'
p6734
(lp6735
S'104-42-7'
p6736
aS''
asS'5577'
p6737
(lp6738
S'138-56-7'
p6739
aS''
asS'5576'
p6740
(lp6741
S'127-48-0'
p6742
aS''
asS'5574'
p6743
(lp6744
S'84-96-8'
p6745
aS''
asS'5572'
p6746
(lp6747
S'144-11-6'
p6748
aS''
asS'34'
p6749
(lp6750
S'107-07-3'
p6751
aS'107-07-3'
p6752
aS'107-07-3'
p6753
aS''
asS'641'
p6754
(lp6755
S'190079-18-6'
p6756
aS''
asS'640'
p6757
(lp6758
S'951-78-0'
p6759
aS''
asS'1930'
p6760
(lp6761
S'301-02-0'
p6762
aS''
asS'647'
p6763
(lp6764
S'358-72-5'
p6765
aS''
asS'646'
p6766
(lp6767
S'2564-35-4'
p6768
aS''
asS'648'
p6769
(lp6770
S'155-54-4'
p6771
aS''
asS'5546'
p6772
(lp6773
S'396-01-0'
p6774
aS''
asS'7616'
p6775
(lp6776
S'102-69-2'
p6777
aS''
asS'10038'
p6778
(lp6779
S'463-51-4'
p6780
aS'463-51-4'
p6781
aS''
asS'7617'
p6782
(lp6783
S'102-70-5'
p6784
aS''
asS'1935'
p6785
(lp6786
S'321-64-2'
p6787
aS''
asS'8160'
p6788
(lp6789
S'112-07-2'
p6790
aS'112-07-2'
p6791
aS'112-07-2'
p6792
aS''
asS'335'
p6793
(lp6794
S'95-48-7'
p6795
aS'95-48-7'
p6796
aS'95-48-7'
p6797
aS''
asS'4494'
p6798
(lp6799
S'75530-68-6'
p6800
aS''
asS'4101'
p6801
(lp6802
S'100-97-0'
p6803
aS''
asS'5002'
p6804
(lp6805
S'111974-69-7'
p6806
aS''
asS'7412'
p6807
(lp6808
S'98-88-4'
p6809
aS'98-88-4'
p6810
aS''
asS'7410'
p6811
(lp6812
S'98-86-2'
p6813
aS'98-86-2'
p6814
aS''
asS'7411'
p6815
(lp6816
S'29797-40-8'
p6817
aS'98-87-3'
p6818
aS''
asS'7416'
p6819
(lp6820
S'98-95-3'
p6821
aS'98-95-3'
p6822
aS'98-95-3'
p6823
aS''
asS'7415'
p6824
(lp6825
S'98-94-2'
p6826
aS''
asS'3893'
p6827
(lp6828
S'143-07-7'
p6829
aS''
asS'8359'
p6830
(lp6831
S'118-48-9'
p6832
aS''
asS'9642'
p6833
(lp6834
S'356-12-7'
p6835
aS''
asS'3467'
p6836
(lp6837
S'1403-66-3'
p6838
aS''
asS'2650'
p6839
(lp6840
S'78439-06-2'
p6841
aS''
asS'4432'
p6842
(lp6843
S'360-70-3'
p6844
aS''
asS'9444'
p6845
(lp6846
S'320-67-2'
p6847
aS''
asS'6610'
p6848
(lp6849
S'79-74-3'
p6850
aS''
asS'936'
p6851
(lp6852
S'98-92-0'
p6853
aS'98-92-0'
p6854
aS''
asS'6616'
p6855
(lp6856
S'79-92-5'
p6857
aS''
asS'5773'
p6858
(lp6859
S'50-59-9'
p6860
aS''
asS'6618'
p6861
(lp6862
S'79-94-7'
p6863
aS''
asS'5951'
p6864
(lp6865
S'56-45-1'
p6866
aS'56-45-1'
p6867
aS''
asS'5909'
p6868
(lp6869
S'54-71-7'
p6870
aS''
asS'5954'
p6871
(lp6872
S'56-55-3'
p6873
aS''
asS'3460'
p6874
(lp6875
S'30562-34-6'
p6876
aS''
asS'11535'
p6877
(lp6878
S'590-19-2'
p6879
aS''
asS'3966'
p6880
(lp6881
S'90-39-1'
p6882
aS''
asS'3964'
p6883
(lp6884
S'1977-10-2'
p6885
aS''
asS'5794'
p6886
(lp6887
S'51-03-6'
p6888
aS''
asS'5793'
p6889
(lp6890
S'50-99-7'
p6891
aS''
asS'1023'
p6892
(lp6893
S'2466-09-3'
p6894
aS''
asS'3961'
p6895
(lp6896
S'114798-26-4'
p6897
aS''
asS'8895'
p6898
(lp6899
S'142-71-2'
p6900
aS''
asS'5798'
p6901
(lp6902
S'51-17-2'
p6903
aS''
asS'8894'
p6904
(lp6905
S'142-68-7'
p6906
aS''
asS'3639'
p6907
(lp6908
S'58-93-5'
p6909
aS''
asS'3637'
p6910
(lp6911
S'86-54-4'
p6912
aS''
asS'7376'
p6913
(lp6914
S'98-17-9'
p6915
aS''
asS'848'
p6916
(lp6917
S'470-29-1'
p6918
aS''
asS'4612'
p6919
(lp6920
S'21738-42-1'
p6921
aS''
asS'2341'
p6922
(lp6923
S'156-08-1'
p6924
aS''
asS'6106'
p6925
(lp6926
S'61-90-5'
p6927
aS'328-38-1'
p6928
aS'61-90-5'
p6929
aS''
asS'3335'
p6930
(lp6931
S'36330-85-5'
p6932
aS''
asS'2345'
p6933
(lp6934
S'120-51-4'
p6935
aS'120-51-4'
p6936
aS''
asS'5904'
p6937
(lp6938
S'61-33-6'
p6939
aS''
asS'2347'
p6940
(lp6941
S'85-68-7'
p6942
aS''
asS'7378'
p6943
(lp6944
S'98-19-1'
p6945
aS''
asS'3292'
p6946
(lp6947
S'86-35-1'
p6948
aS''
asS'3702'
p6949
(lp6950
S'26807-65-8'
p6951
aS''
asS'7497'
p6952
(lp6953
S'100-37-8'
p6954
aS'100-37-8'
p6955
aS'100-37-8'
p6956
aS''
asS'4463'
p6957
(lp6958
S'129618-40-2'
p6959
aS''
asS'4460'
p6960
(lp6961
S'56391-56-1'
p6962
aS''
asS'4668'
p6963
(lp6964
S'373-49-9'
p6965
aS'2091-29-4'
p6966
aS''
asS'2343'
p6967
(lp6968
S'91-33-8'
p6969
aS''
asS'948'
p6970
(lp6971
S'10024-97-2'
p6972
aS'10024-97-2'
p6973
aS'10024-97-2'
p6974
aS''
asS'4919'
p6975
(lp6976
S'77-37-2'
p6977
aS''
asS'4916'
p6978
(lp6979
S'72332-33-3'
p6980
aS''
asS'4917'
p6981
(lp6982
S'58-38-8'
p6983
aS''
asS'4914'
p6984
(lp6985
S'59-46-1'
p6986
aS''
asS'6108'
p6987
(lp6988
S'62-23-7'
p6989
aS''
asS'4912'
p6990
(lp6991
S'23288-49-5'
p6992
aS''
asS'4913'
p6993
(lp6994
S'51-06-9'
p6995
aS''
asS'4911'
p6996
(lp6997
S'57-66-9'
p6998
aS''
asS'5757'
p6999
(lp7000
S'50-28-2'
p7001
aS''
asS'11719'
p7002
(lp7003
S'598-50-5'
p7004
aS''
asS'6037'
p7005
(lp7006
S'59-30-3'
p7007
aS''
asS'7000'
p7008
(lp7009
S'90-04-0'
p7010
aS'90-04-0'
p7011
aS'90-04-0'
p7012
aS''
asS'3415'
p7013
(lp7014
S'63585-09-1'
p7015
aS''
asS'137'
p7016
(lp7017
S'106-60-5'
p7018
aS''
asS'6101'
p7019
(lp7020
S'104-15-4'
p7021
aS''
asS'135'
p7022
(lp7023
S'99-96-7'
p7024
aS''
asS'8023'
p7025
(lp7026
S'109-92-2'
p7027
aS''
asS'7381'
p7028
(lp7029
S'98-29-3'
p7030
aS''
asS'4614'
p7031
(lp7032
S'21256-18-8'
p7033
aS''
asS'6324'
p7034
(lp7035
S'68475-58-1'
p7036
aS'74-84-0'
p7037
aS'74-84-0'
p7038
aS''
asS'6323'
p7039
(lp7040
S'74-83-9'
p7041
aS'74-83-9'
p7042
aS'74-83-9'
p7043
aS''
asS'6322'
p7044
(lp7045
S'74-79-3'
p7046
aS''
asS'9681'
p7047
(lp7048
S'361-37-5'
p7049
aS''
asS'5920'
p7050
(lp7051
S'6893-02-3'
p7052
aS''
asS'6329'
p7053
(lp7054
S'74-89-5'
p7055
aS'74-89-5'
p7056
aS'74-89-5'
p7057
aS'74-89-5'
p7058
aS''
asS'9060'
p7059
(lp7060
S'153-94-6'
p7061
aS''
asS'7440'
p7062
(lp7063
S'99-51-4'
p7064
aS''
asS'9068'
p7065
(lp7066
S'154-87-0'
p7067
aS''
asS'10280'
p7068
(lp7069
S'490-83-5'
p7070
aS''
asS'9667'
p7071
(lp7072
S'359-35-3'
p7073
aS''
asS'4585'
p7074
(lp7075
S'132539-06-1'
p7076
aS''
asS'10112'
p7077
(lp7078
S'1317-65-3'
p7079
aS'471-34-1'
p7080
aS'471-34-1(synthetic)<br/>1317-65-3(natural)'
p7081
asS'10442'
p7082
(lp7083
S'504-63-2'
p7084
aS''
asS'3562'
p7085
(lp7086
S'151-67-7'
p7087
aS'151-67-7'
p7088
aS'151-67-7'
p7089
aS''
asS'3563'
p7090
(lp7091
S'59128-97-1'
p7092
aS''
asS'3561'
p7093
(lp7094
S'777-11-7'
p7095
aS''
asS'7251'
p7096
(lp7097
S'95-69-2'
p7098
aS''
asS'7252'
p7099
(lp7100
S'95-70-5'
p7101
aS''
asS'9033'
p7102
(lp7103
S'68130-98-3'
p7104
aS'151-56-4'
p7105
aS'151-56-4'
p7106
aS''
asS'7259'
p7107
(lp7108
S'95-78-3'
p7109
aS''
asS'4485'
p7110
(lp7111
S'21829-25-4'
p7112
aS''
asS'5335'
p7113
(lp7114
S'526-08-9'
p7115
aS''
asS'4488'
p7116
(lp7117
S'4394-00-7'
p7118
aS''
asS'8977'
p7119
(lp7120
S'146-91-8'
p7121
aS''
asS'2901'
p7122
(lp7123
S'52-52-8'
p7124
aS''
asS'7222'
p7125
(lp7126
S'95-16-9'
p7127
aS''
asS'2907'
p7128
(lp7129
S'50-18-0'
p7130
aS''
asS'9153'
p7131
(lp7132
S'205-99-2'
p7133
aS''
asS'2905'
p7134
(lp7135
S'512-15-2'
p7136
aS''
asS'11029'
p7137
(lp7138
S'546-93-0'
p7139
aS'546-93-0'
p7140
aS'13717-00-5'
p7141
aS'546-93-0'
p7142
aS''
asS'2909'
p7143
(lp7144
S'59865-13-3'
p7145
aS''
asS'11565'
p7146
(lp7147
S'591-22-0'
p7148
aS''
asS'700'
p7149
(lp7150
S'141-43-5'
p7151
aS'141-43-5'
p7152
aS'141-43-5'
p7153
aS'141-43-5'
p7154
aS''
asS'11883'
p7155
(lp7156
S'610-39-9'
p7157
aS''
asS'7007'
p7158
(lp7159
S'90-17-5'
p7160
aS''
asS'11885'
p7161
(lp7162
S'62813-37-0'
p7163
aS''
asS'86'
p7164
(lp7165
S'548-93-6'
p7166
aS''
asS'7014'
p7167
(lp7168
S'90-39-1'
p7169
aS''
asS'7137'
p7170
(lp7171
S'93-29-8'
p7172
aS''
asS'5311'
p7173
(lp7174
S'149647-78-9'
p7175
aS''
asS'10563'
p7176
(lp7177
S'513-77-9'
p7178
aS''
asS'7013'
p7179
(lp7180
S'90-30-2'
p7181
aS''
asS'586'
p7182
(lp7183
S'57-00-1'
p7184
aS''
asS'6582'
p7185
(lp7186
S'79-16-3'
p7187
aS''
asS'6581'
p7188
(lp7189
S'79-10-7'
p7190
aS'79-10-7'
p7191
aS'9003-01-4'
p7192
aS'79-10-7'
p7193
aS'79-10-7'
p7194
aS''
asS'8758'
p7195
(lp7196
S'139-13-9'
p7197
aS''
asS'8759'
p7198
(lp7199
S'139-33-3'
p7200
aS''
asS'6585'
p7201
(lp7202
S'79-21-0'
p7203
aS''
asS'8209'
p7204
(lp7205
S'112-72-1'
p7206
aS'63393-82-8'
p7207
aS'67762-41-8'
p7208
aS'68855-56-1'
p7209
aS'71750-71-5'
p7210
aS'75782-87-5'
p7211
aS''
asS'8206'
p7212
(lp7213
S'112-67-4'
p7214
aS''
asS'8755'
p7215
(lp7216
S'139-08-2'
p7217
aS'68391-01-5'
p7218
aS'68424-85-1'
p7219
aS''
asS'6589'
p7220
(lp7221
S'79-29-8'
p7222
aS'79-29-8'
p7223
aS''
asS'6588'
p7224
(lp7225
S'79-27-6'
p7226
aS'79-27-6'
p7227
aS''
asS'8202'
p7228
(lp7229
S'112-62-9'
p7230
aS''
asS'8203'
p7231
(lp7232
S'112-63-0'
p7233
aS''
asS'8200'
p7234
(lp7235
S'112-60-7'
p7236
aS''
asS'8753'
p7237
(lp7238
S'139-07-1'
p7239
aS''
asS'7624'
p7240
(lp7241
S'102-87-4'
p7242
aS''
asS'11089'
p7243
(lp7244
S'552-30-7'
p7245
aS'552-30-7'
p7246
aS'552-30-7'
p7247
aS''
asS'7621'
p7248
(lp7249
S'102-81-8'
p7250
aS'102-81-8'
p7251
aS'102-81-8'
p7252
aS''
asS'3156'
p7253
(lp7254
S'309-29-5'
p7255
aS''
asS'7623'
p7256
(lp7257
S'102-85-2'
p7258
aS''
asS'7622'
p7259
(lp7260
S'102-82-9'
p7261
aS''
asS'6326'
p7262
(lp7263
S'74-86-2'
p7264
aS'74-86-2'
p7265
aS'74-86-2'
p7266
aS''
asS'3393'
p7267
(lp7268
S'17617-23-1'
p7269
aS''
asS'5403'
p7270
(lp7271
S'23031-25-6'
p7272
aS''
asS'3394'
p7273
(lp7274
S'5104-49-4'
p7275
aS''
asS'5401'
p7276
(lp7277
S'63590-64-7'
p7278
aS''
asS'3396'
p7279
(lp7280
S'1841-19-6'
p7281
aS''
asS'7828'
p7282
(lp7283
S'106-75-2'
p7284
aS''
asS'454'
p7285
(lp7286
S'124-13-0'
p7287
aS''
asS'3219'
p7288
(lp7289
S'87233-61-2'
p7290
aS''
asS'7470'
p7291
(lp7292
S'99-94-5'
p7293
aS''
asS'8133'
p7294
(lp7295
S'111-76-2'
p7296
aS'111-76-2'
p7297
aS'111-76-2'
p7298
aS''
asS'8119'
p7299
(lp7300
S'111-49-9'
p7301
aS''
asS'6928'
p7302
(lp7303
S'88-24-4'
p7304
aS''
asS'9878'
p7305
(lp7306
S'426-13-1'
p7307
aS''
asS'8112'
p7308
(lp7309
S'111-41-1'
p7310
aS''
asS'8113'
p7311
(lp7312
S'111-42-2'
p7313
aS'61791-44-4'
p7314
aS'61791-46-6'
p7315
aS'111-42-2'
p7316
aS'111-42-2'
p7317
aS''
asS'8114'
p7318
(lp7319
S'111-43-3'
p7320
aS''
asS'7719'
p7321
(lp7322
S'104-75-6'
p7323
aS''
asS'5541'
p7324
(lp7325
S'102-76-1'
p7326
aS''
asS'3089'
p7327
(lp7328
S'7456-24-8'
p7329
aS''
asS'9560'
p7330
(lp7331
S'7786-34-7'
p7332
aS'7786-34-7'
p7333
aS''
asS'3081'
p7334
(lp7335
S'695-53-4'
p7336
aS''
asS'3080'
p7337
(lp7338
S'59-52-9'
p7339
aS''
asS'8376'
p7340
(lp7341
S'118-96-7'
p7342
aS'118-96-7'
p7343
aS'118-96-7'
p7344
aS'118-96-7'
p7345
aS''
asS'8372'
p7346
(lp7347
S'118-82-1'
p7348
aS''
asS'8370'
p7349
(lp7350
S'118-74-1'
p7351
aS'118-74-1'
p7352
aS''
asS'8378'
p7353
(lp7354
S'119-04-0'
p7355
aS'1404-04-2'
p7356
aS''
asS'11239'
p7357
(lp7358
S'563-45-1'
p7359
aS''
asS'8572'
p7360
(lp7361
S'131-56-6'
p7362
aS''
asS'5897'
p7363
(lp7364
S'53-96-3'
p7365
aS'53-96-3'
p7366
aS''
asS'11230'
p7367
(lp7368
S'562-74-3'
p7369
aS''
asS'11236'
p7370
(lp7371
S'563-41-7'
p7372
aS''
asS'11237'
p7373
(lp7374
S'563-43-9'
p7375
aS''
asS'11201'
p7376
(lp7377
S'557-91-5'
p7378
aS''
asS'3883'
p7379
(lp7380
S'103577-45-3'
p7381
aS''
asS'949'
p7382
(lp7383
S'121-69-7'
p7384
aS'121-69-7'
p7385
aS'121-69-7'
p7386
aS''
asS'7405'
p7387
(lp7388
S'98-79-3'
p7389
aS''
asS'7406'
p7390
(lp7391
S'68333-89-1'
p7392
aS'68936-98-1'
p7393
aS'98-82-8'
p7394
aS'98-82-8'
p7395
aS'98-82-8'
p7396
aS''
asS'944'
p7397
(lp7398
S'68412-17-9'
p7399
aS'7697-37-2'
p7400
aS'7697-37-2'
p7401
aS'7697-37-2'
p7402
aS''
asS'7403'
p7403
(lp7404
S'98-73-7'
p7405
aS''
asS'4915'
p7406
(lp7407
S'671-16-9'
p7408
aS''
asS'10531'
p7409
(lp7410
S'6190-39-2'
p7411
aS''
asS'189'
p7412
(lp7413
S'4985-36-8'
p7414
aS''
asS'943'
p7415
(lp7416
S'14797-55-8'
p7417
aS''
asS'2578'
p7418
(lp7419
S'154-93-8'
p7420
aS''
asS'6626'
p7421
(lp7422
S'80-09-1'
p7423
aS''
asS'6627'
p7424
(lp7425
S'80-10-4'
p7426
aS''
asS'6625'
p7427
(lp7428
S'80-07-9'
p7429
aS''
asS'11529'
p7430
(lp7431
S'590-01-2'
p7432
aS''
asS'7501'
p7433
(lp7434
S'100-42-5'
p7435
aS'100-42-5'
p7436
aS'100-42-5'
p7437
aS''
asS'4004'
p7438
(lp7439
S'121-75-5'
p7440
aS'121-75-5'
p7441
aS'121-75-5'
p7442
aS''
asS'6291'
p7443
(lp7444
S'72-33-3'
p7445
aS''
asS'9896'
p7446
(lp7447
S'432-60-0'
p7448
aS''
asS'6529'
p7449
(lp7450
S'78-32-0'
p7451
aS''
asS'2795'
p7452
(lp7453
S'791-35-5'
p7454
aS''
asS'2576'
p7455
(lp7456
S'78-44-4'
p7457
aS''
asS'2818'
p7458
(lp7459
S'5786-21-0'
p7460
aS''
asS'5883'
p7461
(lp7462
S'5818-17-7'
p7463
aS''
asS'7996'
p7464
(lp7465
S'109-59-1'
p7466
aS'109-59-1'
p7467
aS''
asS'6032'
p7468
(lp7469
S'8063-07-8'
p7470
aS''
asS'6031'
p7471
(lp7472
S'58-98-0'
p7473
aS''
asS'3070'
p7474
(lp7475
S'67-96-9'
p7476
aS''
asS'6030'
p7477
(lp7478
S'58-97-9'
p7479
aS''
asS'11419'
p7480
(lp7481
S'583-60-8'
p7482
aS'583-60-8'
p7483
aS''
asS'2577'
p7484
(lp7485
S'61422-45-5'
p7486
aS''
asS'6137'
p7487
(lp7488
S'63-68-3'
p7489
aS''
asS'2537'
p7490
(lp7491
S'76-22-2'
p7492
aS'76-22-2'
p7493
aS'76-22-2'
p7494
aS'76-22-2'
p7495
aS''
asS'10943'
p7496
(lp7497
S'541-73-1'
p7498
aS''
asS'8111'
p7499
(lp7500
S'111-40-0'
p7501
aS'111-40-0'
p7502
aS'111-40-0'
p7503
aS''
asS'3715'
p7504
(lp7505
S'53-86-1'
p7506
aS''
asS'6132'
p7507
(lp7508
S'63-38-7'
p7509
aS''
asS'4472'
p7510
(lp7511
S'51-12-7'
p7512
aS''
asS'4475'
p7513
(lp7514
S'27848-84-6'
p7515
aS''
asS'4477'
p7516
(lp7517
S'50-65-7'
p7518
aS''
asS'6006'
p7519
(lp7520
S'1492-18-8'
p7521
aS'58-05-9'
p7522
aS''
asS'4908'
p7523
(lp7524
S'90-34-6'
p7525
aS''
asS'947'
p7526
(lp7527
S'7727-37-9'
p7528
aS''
asS'4679'
p7529
(lp7530
S'102625-70-7'
p7531
aS''
asS'4678'
p7532
(lp7533
S'16485-10-2'
p7534
aS'81-13-0'
p7535
aS''
asS'2484'
p7536
(lp7537
S'101828-21-1'
p7538
aS''
asS'6009'
p7539
(lp7540
S'58-15-1'
p7541
aS''
asS'7644'
p7542
(lp7543
S'103-26-4'
p7544
aS''
asS'9270'
p7545
(lp7546
S'297-76-7'
p7547
aS''
asS'9274'
p7548
(lp7549
S'298-06-6'
p7550
aS''
asS'9275'
p7551
(lp7552
S'298-07-7'
p7553
aS''
asS'7393'
p7554
(lp7555
S'98-54-4'
p7556
aS''
asS'3403'
p7557
(lp7558
S'93957-54-1'
p7559
aS''
asS'8652'
p7560
(lp7561
S'134-84-9'
p7562
aS''
asS'3404'
p7563
(lp7564
S'54739-18-3'
p7565
aS''
asS'3407'
p7566
(lp7567
S'18053-31-1'
p7568
aS''
asS'3406'
p7569
(lp7570
S'7554-65-6'
p7571
aS''
asS'10635'
p7572
(lp7573
S'521-18-6'
p7574
aS''
asS'5761'
p7575
(lp7576
S'50-37-3'
p7577
aS''
asS'4875'
p7578
(lp7579
S'7681-11-0'
p7580
aS'7681-11-0'
p7581
aS''
asS'7897'
p7582
(lp7583
S'107-89-1'
p7584
aS''
asS'4870'
p7585
(lp7586
S'346-18-9'
p7587
aS''
asS'4873'
p7588
(lp7589
S'7447-40-7'
p7590
aS'7447-40-7'
p7591
aS''
asS'7220'
p7592
(lp7593
S'95-14-7'
p7594
aS''
asS'8095'
p7595
(lp7596
S'111-15-9'
p7597
aS'111-15-9'
p7598
aS'111-15-9'
p7599
aS''
asS'8987'
p7600
(lp7601
S'147-84-2'
p7602
aS''
asS'10724'
p7603
(lp7604
S'529-34-0'
p7605
aS''
asS'8146'
p7606
(lp7607
S'111-90-0'
p7608
aS''
asS'6319'
p7609
(lp7610
S'74-31-7'
p7611
aS''
asS'2796'
p7612
(lp7613
S'637-07-0'
p7614
aS''
asS'942'
p7615
(lp7616
S'54-11-5'
p7617
aS'54-11-5'
p7618
aS'54-11-5'
p7619
aS''
asS'2794'
p7620
(lp7621
S'2030-63-9'
p7622
aS''
asS'2307'
p7623
(lp7624
S'5534-09-8'
p7625
aS''
asS'6442'
p7626
(lp7627
S'76-39-1'
p7628
aS''
asS'5426'
p7629
(lp7630
S'50-35-1'
p7631
aS''
asS'10439'
p7632
(lp7633
S'504-29-0'
p7634
aS'504-29-0'
p7635
aS''
asS'10129'
p7636
(lp7637
S'473-55-2'
p7638
aS''
asS'10128'
p7639
(lp7640
S'473-54-1'
p7641
aS'4948-28-1'
p7642
aS'4948-29-2'
p7643
aS''
asS'10690'
p7644
(lp7645
S'526-95-4'
p7646
aS''
asS'10430'
p7647
(lp7648
S'503-74-2'
p7649
aS''
asS'10434'
p7650
(lp7651
S'504-02-9'
p7652
aS''
asS'7247'
p7653
(lp7654
S'95-63-6'
p7655
aS'95-63-6'
p7656
aS''
asS'5071'
p7657
(lp7658
S'13392-28-4'
p7659
aS''
asS'7243'
p7660
(lp7661
S'95-54-5'
p7662
aS'95-54-5'
p7663
aS''
asS'7242'
p7664
(lp7665
S'95-53-4'
p7666
aS'95-53-4'
p7667
aS'95-53-4'
p7668
aS''
asS'7240'
p7669
(lp7670
S'95-51-2'
p7671
aS''
asS'5090'
p7672
(lp7673
S'162011-90-7'
p7674
aS''
asS'5092'
p7675
(lp7676
S'61413-54-5'
p7677
aS''
asS'7873'
p7678
(lp7679
S'107-49-3'
p7680
aS'107-49-3'
p7681
aS''
asS'5095'
p7682
(lp7683
S'91374-21-9'
p7684
aS''
asS'7249'
p7685
(lp7686
S'95-65-8'
p7687
aS''
asS'8988'
p7688
(lp7689
S'344-25-2'
p7690
aS''
asS'8969'
p7691
(lp7692
S'146-48-5'
p7693
aS''
asS'7959'
p7694
(lp7695
S'108-84-9'
p7696
aS'108-84-9'
p7697
aS''
asS'7958'
p7698
(lp7699
S'108-83-8'
p7700
aS'108-83-8'
p7701
aS'108-83-8'
p7702
aS''
asS'4499'
p7703
(lp7704
S'63675-72-9'
p7705
aS''
asS'7111'
p7706
(lp7707
S'92-87-5'
p7708
aS'92-87-5'
p7709
aS''
asS'10541'
p7710
(lp7711
S'512-56-1'
p7712
aS''
asS'10542'
p7713
(lp7714
S'512-69-6'
p7715
aS''
asS'5325'
p7716
(lp7717
S'127-79-7'
p7718
aS''
asS'5329'
p7719
(lp7720
S'723-46-6'
p7721
aS''
asS'7561'
p7722
(lp7723
S'101-43-9'
p7724
aS''
asS'8186'
p7725
(lp7726
S'112-44-7'
p7727
aS''
asS'8815'
p7728
(lp7729
S'140-67-0'
p7730
aS''
asS'8814'
p7731
(lp7732
S'140-66-9'
p7733
aS''
asS'8211'
p7734
(lp7735
S'112-75-4'
p7736
aS''
asS'8210'
p7737
(lp7738
S'112-73-2'
p7739
aS''
asS'8213'
p7740
(lp7741
S'112-82-3'
p7742
aS''
asS'8214'
p7743
(lp7744
S'112-84-5'
p7745
aS''
asS'8216'
p7746
(lp7747
S'112-86-7'
p7748
aS''
asS'7255'
p7749
(lp7750
S'95-74-9'
p7751
aS''
asS'2809'
p7752
(lp7753
S'23887-31-2'
p7754
aS''
asS'7654'
p7755
(lp7756
S'103-45-7'
p7757
aS''
asS'11979'
p7758
(lp7759
S'614-97-1'
p7760
aS''
asS'7656'
p7761
(lp7762
S'103-49-1'
p7763
aS''
asS'2802'
p7764
(lp7765
S'1622-61-3'
p7766
aS''
asS'2803'
p7767
(lp7768
S'4205-90-7'
p7769
aS''
asS'2800'
p7770
(lp7771
S'911-45-5'
p7772
aS''
asS'2801'
p7773
(lp7774
S'303-49-1'
p7775
aS''
asS'3162'
p7776
(lp7777
S'469-21-6'
p7778
aS''
asS'2805'
p7779
(lp7780
S'3703-76-2'
p7781
aS''
asS'2406'
p7782
(lp7783
S'97-18-7'
p7784
aS''
asS'7094'
p7785
(lp7786
S'92-51-3'
p7787
aS''
asS'7095'
p7788
(lp7789
S'92-52-4'
p7790
aS'92-52-4'
p7791
aS'92-52-4'
p7792
aS''
asS'3369'
p7793
(lp7794
S'3900-31-0'
p7795
aS''
asS'3365'
p7796
(lp7797
S'86386-73-4'
p7798
aS''
asS'3366'
p7799
(lp7800
S'2022-85-7'
p7801
aS''
asS'8177'
p7802
(lp7803
S'112-34-5'
p7804
aS''
asS'7116'
p7805
(lp7806
S'93-00-5'
p7807
aS''
asS'4868'
p7808
(lp7809
S'1405-20-5'
p7810
aS''
asS'7098'
p7811
(lp7812
S'92-59-1'
p7813
aS''
asS'736'
p7814
(lp7815
S'90-80-2'
p7816
aS'90-80-2'
p7817
aS''
asS'10660'
p7818
(lp7819
S'523-87-5'
p7820
aS''
asS'9651'
p7821
(lp7822
S'357-70-0'
p7823
aS''
asS'8105'
p7824
(lp7825
S'111-29-5'
p7826
aS''
asS'8106'
p7827
(lp7828
S'111-31-9'
p7829
aS'111-31-9'
p7830
aS'111-31-9'
p7831
aS''
asS'8103'
p7832
(lp7833
S'111-27-3'
p7834
aS''
asS'460'
p7835
(lp7836
S'90-05-1'
p7837
aS''
asS'6498'
p7838
(lp7839
S'77-79-2'
p7840
aS''
asS'9223'
p7841
(lp7842
S'271-89-6'
p7843
aS''
asS'5440'
p7844
(lp7845
S'1420-55-9'
p7846
aS''
asS'5556'
p7847
(lp7848
S'28911-01-5'
p7849
aS''
asS'9863'
p7850
(lp7851
S'409-21-2'
p7852
aS'409-21-2'
p7853
aS'409-21-2'
p7854
aS''
asS'9862'
p7855
(lp7856
S'409-02-9'
p7857
aS''
asS'11146'
p7858
(lp7859
S'555-43-1'
p7860
aS''
asS'11143'
p7861
(lp7862
S'555-31-7'
p7863
aS''
asS'10668'
p7864
(lp7865
S'524-84-5'
p7866
aS''
asS'6285'
p7867
(lp7868
S'71-91-0'
p7869
aS''
asS'6245'
p7870
(lp7871
S'69-33-0'
p7872
aS''
asS'10407'
p7873
(lp7874
S'18794-84-8'
p7875
aS''
asS'6328'
p7876
(lp7877
S'74-88-4'
p7878
aS'74-88-4'
p7879
aS'74-88-4'
p7880
aS''
asS'8361'
p7881
(lp7882
S'118-55-8'
p7883
aS''
asS'8139'
p7884
(lp7885
S'111-82-0'
p7886
aS''
asS'8363'
p7887
(lp7888
S'118-58-1'
p7889
aS''
asS'6777'
p7890
(lp7891
S'84-61-7'
p7892
aS''
asS'8365'
p7893
(lp7894
S'118-61-6'
p7895
aS''
asS'5526'
p7896
(lp7897
S'1197-18-8'
p7898
aS''
asS'8367'
p7899
(lp7900
S'2235-90-7'
p7901
aS''
asS'4754'
p7902
(lp7903
S'62-44-2'
p7904
aS''
asS'3150'
p7905
(lp7906
S'14277-97-5'
p7907
aS''
asS'8567'
p7908
(lp7909
S'6284-40-8'
p7910
aS''
asS'5881'
p7911
(lp7912
S'53-43-0'
p7913
aS''
asS'5880'
p7914
(lp7915
S'53-42-9'
p7916
aS''
asS'8560'
p7917
(lp7918
S'131-17-9'
p7919
aS''
asS'6535'
p7920
(lp7921
S'78-40-0'
p7922
aS''
asS'6556'
p7923
(lp7924
S'78-78-4'
p7925
aS'78-78-4'
p7926
aS''
asS'6557'
p7927
(lp7928
S'78-79-5'
p7929
aS''
asS'6552'
p7930
(lp7931
S'78-73-9'
p7932
aS''
asS'6862'
p7933
(lp7934
S'86-87-3'
p7935
aS''
asS'4887'
p7936
(lp7937
S'103177-37-3'
p7938
aS''
asS'7478'
p7939
(lp7940
S'100-09-4'
p7941
aS''
asS'5978'
p7942
(lp7943
S'57-22-7'
p7944
aS''
asS'3180'
p7945
(lp7946
S'586-60-7'
p7947
aS''
asS'6945'
p7948
(lp7949
S'88-73-3'
p7950
aS'88-73-3'
p7951
aS''
asS'3182'
p7952
(lp7953
S'479-18-5'
p7954
aS''
asS'7615'
p7955
(lp7956
S'102-60-3'
p7957
aS''
asS'938'
p7958
(lp7959
S'59-67-6'
p7960
aS'59-67-6'
p7961
aS''
asS'7473'
p7962
(lp7963
S'99-99-0'
p7964
aS'99-99-0'
p7965
aS'99-99-0'
p7966
aS''
asS'5755'
p7967
(lp7968
S'50-24-8'
p7969
aS''
asS'7475'
p7970
(lp7971
S'100-01-6'
p7972
aS'100-01-6'
p7973
aS'100-01-6'
p7974
aS''
asS'1065'
p7975
(lp7976
S'130-95-0'
p7977
aS'56-54-2'
p7978
aS''
asS'6449'
p7979
(lp7980
S'76-58-4'
p7981
aS''
asS'4100'
p7982
(lp7983
S'554-57-4'
p7984
aS''
asS'11552'
p7985
(lp7986
S'590-86-3'
p7987
aS''
asS'5754'
p7988
(lp7989
S'50-23-7'
p7990
aS''
asS'6281'
p7991
(lp7992
S'71-63-6'
p7993
aS''
asS'11390'
p7994
(lp7995
S'581-75-9'
p7996
aS''
asS'4011'
p7997
(lp7998
S'10262-69-8'
p7999
aS''
asS'3229'
p8000
(lp8001
S'74011-58-8'
p8002
aS''
asS'9883'
p8003
(lp8004
S'428-59-1'
p8005
aS''
asS'9880'
p8006
(lp8007
S'427-51-0'
p8008
aS''
asS'3100'
p8009
(lp8010
S'58-73-1'
p8011
aS''
asS'6126'
p8012
(lp8013
S'62-97-5'
p8014
aS''
asS'6129'
p8015
(lp8016
S'63-25-2'
p8017
aS'63-25-2'
p8018
aS''
asS'7892'
p8019
(lp8020
S'107-83-5'
p8021
aS'107-83-5'
p8022
aS''
asS'7372'
p8023
(lp8024
S'98-13-5'
p8025
aS''
asS'10928'
p8026
(lp8027
S'541-41-3'
p8028
aS''
asS'289'
p8029
(lp8030
S'120-80-9'
p8031
aS'120-80-9'
p8032
aS'120-80-9'
p8033
aS'120-80-9'
p8034
aS''
asS'10607'
p8035
(lp8036
S'518-28-5'
p8037
aS''
asS'10958'
p8038
(lp8039
S'542-56-3'
p8040
aS''
asS'10953'
p8041
(lp8042
S'542-28-9'
p8043
aS''
asS'3760'
p8044
(lp8045
S'27523-40-6'
p8046
aS''
asS'3763'
p8047
(lp8048
S'26675-46-7'
p8049
aS''
asS'6109'
p8050
(lp8051
S'62-33-9'
p8052
aS'62-33-9'
p8053
aS''
asS'2381'
p8054
(lp8055
S'514-65-8'
p8056
aS''
asS'261'
p8057
(lp8058
S'123-72-8'
p8059
aS''
asS'260'
p8060
(lp8061
S'10035-10-6'
p8062
aS'10035-10-6'
p8063
aS'10035-10-6'
p8064
aS''
asS'264'
p8065
(lp8066
S'107-92-6'
p8067
aS'107-92-6'
p8068
aS''
asS'6010'
p8069
(lp8070
S'58-18-4'
p8071
aS''
asS'6013'
p8072
(lp8073
S'58-22-0'
p8074
aS''
asS'4649'
p8075
(lp8076
S'65-49-6'
p8077
aS''
asS'4642'
p8078
(lp8079
S'125-53-1'
p8080
aS''
asS'6018'
p8081
(lp8082
S'58-46-8'
p8083
aS''
asS'7253'
p8084
(lp8085
S'95-71-6'
p8086
aS''
asS'4644'
p8087
(lp8088
S'2465-59-0'
p8089
aS''
asS'4932'
p8090
(lp8091
S'54063-53-5'
p8092
aS''
asS'8878'
p8093
(lp8094
S'142-19-8'
p8095
aS''
asS'11775'
p8096
(lp8097
S'603-34-9'
p8098
aS'603-34-9'
p8099
aS''
asS'11776'
p8100
(lp8101
S'603-35-0'
p8102
aS''
asS'10041'
p8103
(lp8104
S'463-82-1'
p8105
aS'463-82-1'
p8106
aS''
asS'6005'
p8107
(lp8108
S'41372-20-7'
p8109
aS''
asS'7877'
p8110
(lp8111
S'107-58-4'
p8112
aS''
asS'3245'
p8113
(lp8114
S'10402-90-1'
p8115
aS''
asS'7872'
p8116
(lp8117
S'107-47-1'
p8118
aS''
asS'4756'
p8119
(lp8120
S'94-78-0'
p8121
aS''
asS'4109'
p8122
(lp8123
S'16752-77-5'
p8124
aS'16752-77-5'
p8125
aS'16752-77-5'
p8126
aS''
asS'2784'
p8127
(lp8128
S'7020-55-5'
p8129
aS''
asS'10964'
p8130
(lp8131
S'542-78-9'
p8132
aS''
asS'2781'
p8133
(lp8134
S'15686-51-8'
p8135
aS''
asS'8197'
p8136
(lp8137
S'112-57-2'
p8138
aS''
asS'2783'
p8139
(lp8140
S'37148-27-9'
p8141
aS''
asS'2789'
p8142
(lp8143
S'22316-47-8'
p8144
aS''
asS'2788'
p8145
(lp8146
S'130-26-7'
p8147
aS''
asS'11604'
p8148
(lp8149
S'592-51-8'
p8150
aS''
asS'10601'
p8151
(lp8152
S'517-23-7'
p8153
aS''
asS'11601'
p8154
(lp8155
S'68526-52-3'
p8156
aS''
asS'6305'
p8157
(lp8158
S'73-22-3'
p8159
aS'153-94-6'
p8160
aS''
asS'4098'
p8161
(lp8162
S'91-80-5'
p8163
aS''
asS'10133'
p8164
(lp8165
S'474-25-9'
p8166
aS''
asS'9648'
p8167
(lp8168
S'357-56-2'
p8169
aS''
asS'9318'
p8170
(lp8171
S'301-10-0'
p8172
aS''
asS'7272'
p8173
(lp8174
S'95-96-5'
p8175
aS''
asS'8954'
p8176
(lp8177
S'144-75-2'
p8178
aS''
asS'729'
p8179
(lp8180
S'142-10-9'
p8181
aS''
asS'7276'
p8182
(lp8183
S'96-09-3'
p8184
aS''
asS'7277'
p8185
(lp8186
S'96-10-6'
p8187
aS''
asS'2793'
p8188
(lp8189
S'47739-98-0'
p8190
aS''
asS'2678'
p8191
(lp8192
S'83881-51-0'
p8193
aS''
asS'8908'
p8194
(lp8195
S'142-92-7'
p8196
aS''
asS'6833'
p8197
(lp8198
S'86-14-6'
p8199
aS''
asS'6832'
p8200
(lp8201
S'86-13-5'
p8202
aS''
asS'6830'
p8203
(lp8204
S'86-01-1'
p8205
aS''
asS'6834'
p8206
(lp8207
S'86-22-6'
p8208
aS''
asS'6839'
p8209
(lp8210
S'86-34-0'
p8211
aS''
asS'11271'
p8212
(lp8213
S'565-80-0'
p8214
aS''
asS'2564'
p8215
(lp8216
S'486-16-8'
p8217
aS''
asS'10553'
p8218
(lp8219
S'513-35-9'
p8220
aS''
asS'7028'
p8221
(lp8222
S'90-82-4'
p8223
aS''
asS'1986'
p8224
(lp8225
S'59-66-5'
p8226
aS''
asS'1983'
p8227
(lp8228
S'103-90-2'
p8229
aS'103-90-2'
p8230
aS''
asS'1639'
p8231
(lp8232
S'61-82-5'
p8233
aS'61-82-5'
p8234
aS''
asS'8416'
p8235
(lp8236
S'120-07-0'
p8237
aS''
asS'11674'
p8238
(lp8239
S'594-72-9'
p8240
aS'594-72-9'
p8241
aS''
asS'8821'
p8242
(lp8243
S'140-88-5'
p8244
aS'140-88-5'
p8245
aS'140-88-5'
p8246
aS''
asS'8827'
p8247
(lp8248
S'140-95-4'
p8249
aS''
asS'8779'
p8250
(lp8251
S'140-01-2'
p8252
aS''
asS'2811'
p8253
(lp8254
S'33671-46-4'
p8255
aS''
asS'2812'
p8256
(lp8257
S'23593-75-1'
p8258
aS''
asS'8772'
p8259
(lp8260
S'139-89-9'
p8261
aS''
asS'10911'
p8262
(lp8263
S'540-97-6'
p8264
aS''
asS'8777'
p8265
(lp8266
S'139-96-8'
p8267
aS''
asS'7642'
p8268
(lp8269
S'103-24-2'
p8270
aS''
asS'7641'
p8271
(lp8272
S'103-23-1'
p8273
aS''
asS'7647'
p8274
(lp8275
S'103-29-7'
p8276
aS''
asS'702'
p8277
(lp8278
S'64-17-5'
p8279
aS'64-17-5'
p8280
aS'64-17-5'
p8281
aS'64-17-5'
p8282
aS''
asS'2366'
p8283
(lp8284
S'5638-76-6'
p8285
aS''
asS'703'
p8286
(lp8287
S'146-14-5'
p8288
aS''
asS'7589'
p8289
(lp8290
S'101-96-2'
p8291
aS''
asS'1483'
p8292
(lp8293
S'118-79-6'
p8294
aS'118-79-6'
p8295
aS''
asS'5429'
p8296
(lp8297
S'83-67-0'
p8298
aS''
asS'1188'
p8299
(lp8300
S'69-89-6'
p8301
aS''
asS'1021'
p8302
(lp8303
S'487-90-1'
p8304
aS''
asS'3375'
p8305
(lp8306
S'2557-49-5'
p8307
aS''
asS'3374'
p8308
(lp8309
S'42835-25-6'
p8310
aS''
asS'3373'
p8311
(lp8312
S'78755-81-4'
p8313
aS''
asS'3371'
p8314
(lp8315
S'530-78-9'
p8316
aS''
asS'6029'
p8317
(lp8318
S'58-96-8'
p8319
aS''
asS'727'
p8320
(lp8321
S'58-89-9'
p8322
aS'58-89-9'
p8323
aS'58-89-9'
p8324
aS''
asS'2361'
p8325
(lp8326
S'6051-87-2'
p8327
aS''
asS'7104'
p8328
(lp8329
S'92-70-6'
p8330
aS''
asS'9011'
p8331
(lp8332
S'150-50-5'
p8333
aS''
asS'8170'
p8334
(lp8335
S'112-25-4'
p8336
aS''
asS'8171'
p8337
(lp8338
S'112-26-5'
p8339
aS''
asS'8172'
p8340
(lp8341
S'112-27-6'
p8342
aS''
asS'8174'
p8343
(lp8344
S'112-30-1'
p8345
aS'66455-17-2'
p8346
aS'85566-12-7'
p8347
aS''
asS'8175'
p8348
(lp8349
S'112-31-2'
p8350
aS''
asS'8178'
p8351
(lp8352
S'112-35-6'
p8353
aS''
asS'2585'
p8354
(lp8355
S'72956-09-3'
p8356
aS''
asS'9801'
p8357
(lp8358
S'390-64-7'
p8359
aS''
asS'5994'
p8360
(lp8361
S'57-83-0'
p8362
aS''
asS'6943'
p8363
(lp8364
S'88-69-7'
p8365
aS''
asS'7583'
p8366
(lp8367
S'101-84-8'
p8368
aS'101-84-8'
p8369
aS'101-84-8'
p8370
aS''
asS'6947'
p8371
(lp8372
S'88-75-5'
p8373
aS''
asS'5430'
p8374
(lp8375
S'148-79-8'
p8376
aS''
asS'7923'
p8377
(lp8378
S'108-31-6'
p8379
aS'108-31-6'
p8380
aS'108-31-6'
p8381
aS''
asS'11177'
p8382
(lp8383
S'557-04-0'
p8384
aS''
asS'3302'
p8385
(lp8386
S'965-90-2'
p8387
aS''
asS'11178'
p8388
(lp8389
S'557-05-1'
p8390
aS'557-05-1'
p8391
aS'557-05-1'
p8392
aS''
asS'7741'
p8393
(lp8394
S'105-20-4'
p8395
aS''
asS'5997'
p8396
(lp8397
S'57-88-5'
p8398
aS''
asS'1292'
p8399
(lp8400
S'90-64-2'
p8401
aS''
asS'1567'
p8402
(lp8403
S'60-24-2'
p8404
aS'60-24-2'
p8405
aS''
asS'8398'
p8406
(lp8407
S'119-47-1'
p8408
aS''
asS'5322'
p8409
(lp8410
S'17784-12-2'
p8411
aS''
asS'8550'
p8412
(lp8413
S'131-01-1'
p8414
aS''
asS'8551'
p8415
(lp8416
S'131-08-8'
p8417
aS''
asS'8008'
p8418
(lp8419
S'109-74-0'
p8420
aS'109-74-0'
p8421
aS'109-74-0'
p8422
aS''
asS'8554'
p8423
(lp8424
S'131-11-3'
p8425
aS'131-11-3'
p8426
aS'131-11-3'
p8427
aS''
asS'8004'
p8428
(lp8429
S'109-67-1'
p8430
aS'25377-72-4'
p8431
aS'68814-91-5'
p8432
aS''
asS'11006'
p8433
(lp8434
S'544-76-3'
p8435
aS''
asS'7929'
p8436
(lp8437
S'108-38-3'
p8438
aS'108-38-3'
p8439
aS'108-38-3'
p8440
aS''
asS'8002'
p8441
(lp8442
S'109-65-9'
p8443
aS''
asS'8003'
p8444
(lp8445
S'109-66-0'
p8446
aS'68476-43-7'
p8447
aS'68476-55-1'
p8448
aS'109-66-0'
p8449
aS'109-66-0'
p8450
aS''
asS'6545'
p8451
(lp8452
S'78-63-7'
p8453
aS''
asS'6544'
p8454
(lp8455
S'78-59-1'
p8456
aS'78-59-1'
p8457
aS'78-59-1'
p8458
aS''
asS'4849'
p8459
(lp8460
S'55837-27-9'
p8461
aS''
asS'6549'
p8462
(lp8463
S'78-70-6'
p8464
aS''
asS'6548'
p8465
(lp8466
S'78-69-3'
p8467
aS''
asS'7469'
p8468
(lp8469
S'99-93-4'
p8470
aS''
asS'8484'
p8471
(lp8472
S'121-63-1'
p8473
aS''
asS'7463'
p8474
(lp8475
S'99-87-6'
p8476
aS''
asS'7462'
p8477
(lp8478
S'99-86-5'
p8479
aS''
asS'7461'
p8480
(lp8481
S'99-85-4'
p8482
aS''
asS'7465'
p8483
(lp8484
S'99-89-8'
p8485
aS''
asS'3198'
p8486
(lp8487
S'27220-47-9'
p8488
aS''
as.